
Minisumo_EDU1.elf:     file format elf32-avr

Sections:
Idx Name          Size      VMA       LMA       File off  Algn
  0 .data         0000023c  00800100  0000484e  000048e2  2**0
                  CONTENTS, ALLOC, LOAD, DATA
  1 .text         0000484e  00000000  00000000  00000094  2**1
                  CONTENTS, ALLOC, LOAD, READONLY, CODE
  2 .bss          0000007d  0080033c  0080033c  00004b1e  2**0
                  ALLOC
  3 .comment      00000024  00000000  00000000  00004b1e  2**0
                  CONTENTS, READONLY
  4 .note.gnu.avr.deviceinfo 00000040  00000000  00000000  00004b44  2**2
                  CONTENTS, READONLY, OCTETS
  5 .debug_aranges 00000140  00000000  00000000  00004b88  2**3
                  CONTENTS, READONLY, DEBUGGING, OCTETS
  6 .debug_info   00000770  00000000  00000000  00004cc8  2**0
                  CONTENTS, READONLY, DEBUGGING, OCTETS
  7 .debug_abbrev 0000066a  00000000  00000000  00005438  2**0
                  CONTENTS, READONLY, DEBUGGING, OCTETS
  8 .debug_line   0000071d  00000000  00000000  00005aa2  2**0
                  CONTENTS, READONLY, DEBUGGING, OCTETS
  9 .debug_str    0000028a  00000000  00000000  000061bf  2**0
                  CONTENTS, READONLY, DEBUGGING, OCTETS

Disassembly of section .text:

00000000 <__vectors>:
       0:	0c 94 b2 02 	jmp	0x564	; 0x564 <__ctors_end>
       4:	0c 94 cf 02 	jmp	0x59e	; 0x59e <__bad_interrupt>
       8:	0c 94 cf 02 	jmp	0x59e	; 0x59e <__bad_interrupt>
       c:	0c 94 cf 02 	jmp	0x59e	; 0x59e <__bad_interrupt>
      10:	0c 94 cf 02 	jmp	0x59e	; 0x59e <__bad_interrupt>
      14:	0c 94 cf 02 	jmp	0x59e	; 0x59e <__bad_interrupt>
      18:	0c 94 cf 02 	jmp	0x59e	; 0x59e <__bad_interrupt>
      1c:	0c 94 cf 02 	jmp	0x59e	; 0x59e <__bad_interrupt>
      20:	0c 94 cf 02 	jmp	0x59e	; 0x59e <__bad_interrupt>
      24:	0c 94 cf 02 	jmp	0x59e	; 0x59e <__bad_interrupt>
      28:	0c 94 cf 02 	jmp	0x59e	; 0x59e <__bad_interrupt>
      2c:	0c 94 cf 02 	jmp	0x59e	; 0x59e <__bad_interrupt>
      30:	0c 94 cf 02 	jmp	0x59e	; 0x59e <__bad_interrupt>
      34:	0c 94 cf 02 	jmp	0x59e	; 0x59e <__bad_interrupt>
      38:	0c 94 cf 02 	jmp	0x59e	; 0x59e <__bad_interrupt>
      3c:	0c 94 cf 02 	jmp	0x59e	; 0x59e <__bad_interrupt>
      40:	0c 94 aa 1f 	jmp	0x3f54	; 0x3f54 <__vector_16>
      44:	0c 94 cf 02 	jmp	0x59e	; 0x59e <__bad_interrupt>
      48:	0c 94 cf 02 	jmp	0x59e	; 0x59e <__bad_interrupt>
      4c:	0c 94 cf 02 	jmp	0x59e	; 0x59e <__bad_interrupt>
      50:	0c 94 cf 02 	jmp	0x59e	; 0x59e <__bad_interrupt>
      54:	0c 94 cf 02 	jmp	0x59e	; 0x59e <__bad_interrupt>
      58:	0c 94 cf 02 	jmp	0x59e	; 0x59e <__bad_interrupt>
      5c:	0c 94 cf 02 	jmp	0x59e	; 0x59e <__bad_interrupt>
      60:	0c 94 cf 02 	jmp	0x59e	; 0x59e <__bad_interrupt>
      64:	0c 94 cf 02 	jmp	0x59e	; 0x59e <__bad_interrupt>

00000068 <my_font>:
      68:	00 00 00 00 00 3e 5b 4f 5b 3e 3e 6b 4f 6b 3e 1c     .....>[O[>>kOk>.
      78:	3e 7c 3e 1c 18 3c 7e 3c 18 1c 57 7d 57 1c 1c 5e     >|>..<~<..W}W..^
      88:	7f 5e 1c 00 18 3c 18 00 ff e7 c3 e7 ff 00 18 24     .^...<.........$
      98:	18 00 ff e7 db e7 ff 30 48 3a 06 0e 26 29 79 29     .......0H:..&)y)
      a8:	26 40 7f 05 05 07 40 7f 05 25 3f 5a 3c e7 3c 5a     &@....@..%?Z<.<Z
      b8:	7f 3e 1c 1c 08 08 1c 1c 3e 7f 14 22 7f 22 14 5f     .>......>.."."._
      c8:	5f 00 5f 5f 06 09 7f 01 7f 00 66 89 95 6a 60 60     _.__......f..j``
      d8:	60 60 60 94 a2 ff a2 94 08 04 7e 04 08 10 20 7e     ```.......~... ~
      e8:	20 10 08 08 2a 1c 08 08 1c 2a 08 08 1e 10 10 10      ...*....*......
      f8:	10 0c 1e 0c 1e 0c 30 38 3e 38 30 06 0e 3e 0e 06     ......08>80..>..
     108:	00 00 00 00 00 00 00 5f 00 00 00 07 00 07 00 14     ......._........
     118:	7f 14 7f 14 24 2a 7f 2a 12 23 13 08 64 62 36 49     ....$*.*.#..db6I
     128:	56 20 50 00 08 07 03 00 00 1c 22 41 00 00 41 22     V P......."A..A"
     138:	1c 00 2a 1c 7f 1c 2a 08 08 3e 08 08 00 80 70 30     ..*...*..>....p0
     148:	00 08 08 08 08 08 00 00 60 60 00 20 10 08 04 02     ........``. ....
     158:	3e 51 49 45 3e 00 42 7f 40 00 72 49 49 49 46 21     >QIE>.B.@.rIIIF!
     168:	41 49 4d 33 18 14 12 7f 10 27 45 45 45 39 3c 4a     AIM3.....'EEE9<J
     178:	49 49 31 41 21 11 09 07 36 49 49 49 36 46 49 49     II1A!...6III6FII
     188:	29 1e 00 00 14 00 00 00 40 34 00 00 00 08 14 22     ).......@4....."
     198:	41 14 14 14 14 14 00 41 22 14 08 02 01 59 09 06     A......A"....Y..
     1a8:	3e 41 5d 59 4e 7c 12 11 12 7c 7f 49 49 49 36 3e     >A]YN|...|.III6>
     1b8:	41 41 41 22 7f 41 41 41 3e 7f 49 49 49 41 7f 09     AAA".AAA>.IIIA..
     1c8:	09 09 01 3e 41 41 51 73 7f 08 08 08 7f 00 41 7f     ...>AAQs......A.
     1d8:	41 00 20 40 41 3f 01 7f 08 14 22 41 7f 40 40 40     A. @A?...."A.@@@
     1e8:	40 7f 02 1c 02 7f 7f 04 08 10 7f 3e 41 41 41 3e     @..........>AAA>
     1f8:	7f 09 09 09 06 3e 41 51 21 5e 7f 09 19 29 46 26     .....>AQ!^...)F&
     208:	49 49 49 32 03 01 7f 01 03 3f 40 40 40 3f 1f 20     III2.....?@@@?. 
     218:	40 20 1f 3f 40 38 40 3f 63 14 08 14 63 03 04 78     @ .?@8@?c...c..x
     228:	04 03 61 59 49 4d 43 00 7f 41 41 41 02 04 08 10     ..aYIMC..AAA....
     238:	20 00 41 41 41 7f 04 02 01 02 04 40 40 40 40 40      .AAA......@@@@@
     248:	00 03 07 08 00 20 54 54 78 40 7f 28 44 44 38 38     ..... TTx@.(DD88
     258:	44 44 44 28 38 44 44 28 7f 38 54 54 54 18 00 08     DDD(8DD(.8TTT...
     268:	7e 09 02 18 a4 a4 9c 78 7f 08 04 04 78 00 44 7d     ~......x....x.D}
     278:	40 00 20 40 40 3d 00 7f 10 28 44 00 00 41 7f 40     @. @@=...(D..A.@
     288:	00 7c 04 78 04 78 7c 08 04 04 78 38 44 44 44 38     .|.x.x|...x8DDD8
     298:	fc 18 24 24 18 18 24 24 18 fc 7c 08 04 04 08 48     ..$$..$$..|....H
     2a8:	54 54 54 24 04 04 3f 44 24 3c 40 40 20 7c 1c 20     TTT$..?D$<@@ |. 
     2b8:	40 20 1c 3c 40 30 40 3c 44 28 10 28 44 4c 90 90     @ .<@0@<D(.(DL..
     2c8:	90 7c 44 64 54 4c 44 00 08 36 41 00 00 00 77 00     .|DdTLD..6A...w.
     2d8:	00 00 41 36 08 00 02 01 02 04 02 3c 26 23 26 3c     ..A6.......<&#&<
     2e8:	1e a1 a1 61 12 3a 40 40 20 7a 38 54 54 55 59 21     ...a.:@@ z8TTUY!
     2f8:	55 55 79 41 22 54 54 78 42 21 55 54 78 40 20 54     UUyA"TTxB!UTx@ T
     308:	55 79 40 0c 1e 52 72 12 39 55 55 55 59 39 54 54     Uy@..Rr.9UUUY9TT
     318:	54 59 39 55 54 54 58 00 00 45 7c 41 00 02 45 7d     TY9UTTX..E|A..E}
     328:	42 00 01 45 7c 40 7d 12 11 12 7d f0 28 25 28 f0     B..E|@}...}.(%(.
     338:	7c 54 55 45 00 20 54 54 7c 54 7c 0a 09 7f 49 32     |TUE. TT|T|...I2
     348:	49 49 49 32 3a 44 44 44 3a 32 4a 48 48 30 3a 41     III2:DDD:2JHH0:A
     358:	41 21 7a 3a 42 40 20 78 00 9d a0 a0 7d 3d 42 42     A!z:B@ x....}=BB
     368:	42 3d 3d 40 40 40 3d 3c 24 ff 24 24 48 7e 49 43     B==@@@=<$.$$H~IC
     378:	66 2b 2f fc 2f 2b ff 09 29 f6 20 c0 88 7e 09 03     f+/./+..). ..~..
     388:	20 54 54 79 41 00 00 44 7d 41 30 48 48 4a 32 38      TTyA..D}A0HHJ28
     398:	40 40 22 7a 00 7a 0a 0a 72 7d 0d 19 31 7d 26 29     @@"z.z..r}..1}&)
     3a8:	29 2f 28 26 29 29 29 26 30 48 4d 40 20 38 08 08     )/(&)))&0HM@ 8..
     3b8:	08 08 08 08 08 08 38 2f 10 c8 ac ba 2f 10 28 34     ......8/..../.(4
     3c8:	fa 00 00 7b 00 00 08 14 2a 14 22 22 14 2a 14 08     ...{....*."".*..
     3d8:	aa 00 55 00 aa aa 55 aa 55 aa 00 00 00 ff 00 10     ..U...U.U.......
     3e8:	10 10 ff 00 14 14 14 ff 00 10 10 ff 00 ff 10 10     ................
     3f8:	f0 10 f0 14 14 14 fc 00 14 14 f7 00 ff 00 00 ff     ................
     408:	00 ff 14 14 f4 04 fc 14 14 17 10 1f 10 10 1f 10     ................
     418:	1f 14 14 14 1f 00 10 10 10 f0 00 00 00 00 1f 10     ................
     428:	10 10 10 1f 10 10 10 10 f0 10 00 00 00 ff 10 10     ................
     438:	10 10 10 10 10 10 10 ff 10 00 00 00 ff 14 00 00     ................
     448:	ff 00 ff 00 00 1f 10 17 00 00 fc 04 f4 14 14 17     ................
     458:	10 17 14 14 f4 04 f4 00 00 ff 00 f7 14 14 14 14     ................
     468:	14 14 14 f7 00 f7 14 14 14 17 14 10 10 1f 10 1f     ................
     478:	14 14 14 f4 14 10 10 f0 10 f0 00 00 1f 10 1f 00     ................
     488:	00 00 1f 14 00 00 00 fc 14 00 00 f0 10 f0 10 10     ................
     498:	ff 10 ff 14 14 14 ff 14 10 10 10 1f 00 00 00 00     ................
     4a8:	f0 10 ff ff ff ff ff f0 f0 f0 f0 f0 ff ff ff 00     ................
     4b8:	00 00 00 00 ff ff 0f 0f 0f 0f 0f 38 44 44 38 44     ...........8DD8D
     4c8:	fc 4a 4a 4a 34 7e 02 02 06 06 02 7e 02 7e 02 63     .JJJ4~.....~.~.c
     4d8:	55 49 41 63 38 44 44 3c 04 40 7e 20 1e 20 06 02     UIAc8DD<.@~ . ..
     4e8:	7e 02 02 99 a5 e7 a5 99 1c 2a 49 2a 1c 4c 72 01     ~........*I*.Lr.
     4f8:	72 4c 30 4a 4d 4d 30 30 48 78 48 30 bc 62 5a 46     rL0JMM00HxH0.bZF
     508:	3d 3e 49 49 49 00 7e 01 01 01 7e 2a 2a 2a 2a 2a     =>III.~...~*****
     518:	44 44 5f 44 44 40 51 4a 44 40 40 44 4a 51 40 00     DD_DD@QJD@@DJQ@.
     528:	00 ff 01 03 e0 80 ff 00 00 08 08 6b 6b 08 36 12     ...........kk.6.
     538:	36 24 36 06 0f 09 0f 06 00 00 18 18 00 00 00 10     6$6.............
     548:	10 00 30 40 ff 01 01 00 1f 01 01 1e 00 19 1d 17     ..0@............
     558:	12 00 3c 3c 3c 3c 00 00 00 00 00 00                 ..<<<<......

00000564 <__ctors_end>:
     564:	11 24       	eor	r1, r1
     566:	1f be       	out	0x3f, r1	; 63
     568:	cf ef       	ldi	r28, 0xFF	; 255
     56a:	d8 e0       	ldi	r29, 0x08	; 8
     56c:	de bf       	out	0x3e, r29	; 62
     56e:	cd bf       	out	0x3d, r28	; 61

00000570 <__do_copy_data>:
     570:	13 e0       	ldi	r17, 0x03	; 3
     572:	a0 e0       	ldi	r26, 0x00	; 0
     574:	b1 e0       	ldi	r27, 0x01	; 1
     576:	ee e4       	ldi	r30, 0x4E	; 78
     578:	f8 e4       	ldi	r31, 0x48	; 72
     57a:	02 c0       	rjmp	.+4      	; 0x580 <__do_copy_data+0x10>
     57c:	05 90       	lpm	r0, Z+
     57e:	0d 92       	st	X+, r0
     580:	ac 33       	cpi	r26, 0x3C	; 60
     582:	b1 07       	cpc	r27, r17
     584:	d9 f7       	brne	.-10     	; 0x57c <__do_copy_data+0xc>

00000586 <__do_clear_bss>:
     586:	23 e0       	ldi	r18, 0x03	; 3
     588:	ac e3       	ldi	r26, 0x3C	; 60
     58a:	b3 e0       	ldi	r27, 0x03	; 3
     58c:	01 c0       	rjmp	.+2      	; 0x590 <.do_clear_bss_start>

0000058e <.do_clear_bss_loop>:
     58e:	1d 92       	st	X+, r1

00000590 <.do_clear_bss_start>:
     590:	a9 3b       	cpi	r26, 0xB9	; 185
     592:	b2 07       	cpc	r27, r18
     594:	e1 f7       	brne	.-8      	; 0x58e <.do_clear_bss_loop>
     596:	0e 94 c8 1d 	call	0x3b90	; 0x3b90 <main>
     59a:	0c 94 25 24 	jmp	0x484a	; 0x484a <_exit>

0000059e <__bad_interrupt>:
     59e:	0c 94 00 00 	jmp	0	; 0x0 <__vectors>

000005a2 <writeReg>:
     5a2:	cf 93       	push	r28
     5a4:	df 93       	push	r29
     5a6:	d8 2f       	mov	r29, r24
     5a8:	c6 2f       	mov	r28, r22
     5aa:	e0 91 b3 03 	lds	r30, 0x03B3	; 0x8003b3 <vl53l0xsensor>
     5ae:	f0 91 b4 03 	lds	r31, 0x03B4	; 0x8003b4 <vl53l0xsensor+0x1>
     5b2:	40 81       	ld	r20, Z
     5b4:	64 85       	ldd	r22, Z+12	; 0x0c
     5b6:	83 85       	ldd	r24, Z+11	; 0x0b
     5b8:	0e 94 a3 20 	call	0x4146	; 0x4146 <i2c_Start>
     5bc:	8d 2f       	mov	r24, r29
     5be:	0e 94 8a 20 	call	0x4114	; 0x4114 <i2c_Write>
     5c2:	8c 2f       	mov	r24, r28
     5c4:	0e 94 8a 20 	call	0x4114	; 0x4114 <i2c_Write>
     5c8:	df 91       	pop	r29
     5ca:	cf 91       	pop	r28
     5cc:	0c 94 ad 20 	jmp	0x415a	; 0x415a <i2c_Stop>

000005d0 <writeReg16Bit>:
     5d0:	1f 93       	push	r17
     5d2:	cf 93       	push	r28
     5d4:	df 93       	push	r29
     5d6:	18 2f       	mov	r17, r24
     5d8:	eb 01       	movw	r28, r22
     5da:	e0 91 b3 03 	lds	r30, 0x03B3	; 0x8003b3 <vl53l0xsensor>
     5de:	f0 91 b4 03 	lds	r31, 0x03B4	; 0x8003b4 <vl53l0xsensor+0x1>
     5e2:	40 81       	ld	r20, Z
     5e4:	64 85       	ldd	r22, Z+12	; 0x0c
     5e6:	83 85       	ldd	r24, Z+11	; 0x0b
     5e8:	0e 94 a3 20 	call	0x4146	; 0x4146 <i2c_Start>
     5ec:	81 2f       	mov	r24, r17
     5ee:	0e 94 8a 20 	call	0x4114	; 0x4114 <i2c_Write>
     5f2:	8d 2f       	mov	r24, r29
     5f4:	0e 94 8a 20 	call	0x4114	; 0x4114 <i2c_Write>
     5f8:	8c 2f       	mov	r24, r28
     5fa:	0e 94 8a 20 	call	0x4114	; 0x4114 <i2c_Write>
     5fe:	df 91       	pop	r29
     600:	cf 91       	pop	r28
     602:	1f 91       	pop	r17
     604:	0c 94 ad 20 	jmp	0x415a	; 0x415a <i2c_Stop>

00000608 <writeReg32Bit>:
     608:	ff 92       	push	r15
     60a:	0f 93       	push	r16
     60c:	1f 93       	push	r17
     60e:	cf 93       	push	r28
     610:	df 93       	push	r29
     612:	f8 2e       	mov	r15, r24
     614:	ea 01       	movw	r28, r20
     616:	16 2f       	mov	r17, r22
     618:	07 2f       	mov	r16, r23
     61a:	e0 91 b3 03 	lds	r30, 0x03B3	; 0x8003b3 <vl53l0xsensor>
     61e:	f0 91 b4 03 	lds	r31, 0x03B4	; 0x8003b4 <vl53l0xsensor+0x1>
     622:	40 81       	ld	r20, Z
     624:	64 85       	ldd	r22, Z+12	; 0x0c
     626:	83 85       	ldd	r24, Z+11	; 0x0b
     628:	0e 94 a3 20 	call	0x4146	; 0x4146 <i2c_Start>
     62c:	8f 2d       	mov	r24, r15
     62e:	0e 94 8a 20 	call	0x4114	; 0x4114 <i2c_Write>
     632:	80 2f       	mov	r24, r16
     634:	0e 94 8a 20 	call	0x4114	; 0x4114 <i2c_Write>
     638:	81 2f       	mov	r24, r17
     63a:	0e 94 8a 20 	call	0x4114	; 0x4114 <i2c_Write>
     63e:	8d 2f       	mov	r24, r29
     640:	0e 94 8a 20 	call	0x4114	; 0x4114 <i2c_Write>
     644:	8c 2f       	mov	r24, r28
     646:	0e 94 8a 20 	call	0x4114	; 0x4114 <i2c_Write>
     64a:	df 91       	pop	r29
     64c:	cf 91       	pop	r28
     64e:	1f 91       	pop	r17
     650:	0f 91       	pop	r16
     652:	ff 90       	pop	r15
     654:	0c 94 ad 20 	jmp	0x415a	; 0x415a <i2c_Stop>

00000658 <readReg>:
     658:	cf 93       	push	r28
     65a:	c8 2f       	mov	r28, r24
     65c:	e0 91 b3 03 	lds	r30, 0x03B3	; 0x8003b3 <vl53l0xsensor>
     660:	f0 91 b4 03 	lds	r31, 0x03B4	; 0x8003b4 <vl53l0xsensor+0x1>
     664:	40 81       	ld	r20, Z
     666:	64 85       	ldd	r22, Z+12	; 0x0c
     668:	83 85       	ldd	r24, Z+11	; 0x0b
     66a:	0e 94 a3 20 	call	0x4146	; 0x4146 <i2c_Start>
     66e:	8c 2f       	mov	r24, r28
     670:	0e 94 8a 20 	call	0x4114	; 0x4114 <i2c_Write>
     674:	e0 91 b3 03 	lds	r30, 0x03B3	; 0x8003b3 <vl53l0xsensor>
     678:	f0 91 b4 03 	lds	r31, 0x03B4	; 0x8003b4 <vl53l0xsensor+0x1>
     67c:	40 81       	ld	r20, Z
     67e:	41 60       	ori	r20, 0x01	; 1
     680:	64 85       	ldd	r22, Z+12	; 0x0c
     682:	83 85       	ldd	r24, Z+11	; 0x0b
     684:	0e 94 a3 20 	call	0x4146	; 0x4146 <i2c_Start>
     688:	80 e0       	ldi	r24, 0x00	; 0
     68a:	0e 94 94 20 	call	0x4128	; 0x4128 <i2c_Read>
     68e:	c8 2f       	mov	r28, r24
     690:	0e 94 ad 20 	call	0x415a	; 0x415a <i2c_Stop>
     694:	8c 2f       	mov	r24, r28
     696:	cf 91       	pop	r28
     698:	08 95       	ret

0000069a <readReg16Bit>:
     69a:	cf 93       	push	r28
     69c:	df 93       	push	r29
     69e:	c8 2f       	mov	r28, r24
     6a0:	e0 91 b3 03 	lds	r30, 0x03B3	; 0x8003b3 <vl53l0xsensor>
     6a4:	f0 91 b4 03 	lds	r31, 0x03B4	; 0x8003b4 <vl53l0xsensor+0x1>
     6a8:	40 81       	ld	r20, Z
     6aa:	64 85       	ldd	r22, Z+12	; 0x0c
     6ac:	83 85       	ldd	r24, Z+11	; 0x0b
     6ae:	0e 94 a3 20 	call	0x4146	; 0x4146 <i2c_Start>
     6b2:	8c 2f       	mov	r24, r28
     6b4:	0e 94 8a 20 	call	0x4114	; 0x4114 <i2c_Write>
     6b8:	e0 91 b3 03 	lds	r30, 0x03B3	; 0x8003b3 <vl53l0xsensor>
     6bc:	f0 91 b4 03 	lds	r31, 0x03B4	; 0x8003b4 <vl53l0xsensor+0x1>
     6c0:	40 81       	ld	r20, Z
     6c2:	41 60       	ori	r20, 0x01	; 1
     6c4:	64 85       	ldd	r22, Z+12	; 0x0c
     6c6:	83 85       	ldd	r24, Z+11	; 0x0b
     6c8:	0e 94 a3 20 	call	0x4146	; 0x4146 <i2c_Start>
     6cc:	80 e0       	ldi	r24, 0x00	; 0
     6ce:	0e 94 94 20 	call	0x4128	; 0x4128 <i2c_Read>
     6d2:	c8 2f       	mov	r28, r24
     6d4:	d0 e0       	ldi	r29, 0x00	; 0
     6d6:	dc 2f       	mov	r29, r28
     6d8:	cc 27       	eor	r28, r28
     6da:	80 e0       	ldi	r24, 0x00	; 0
     6dc:	0e 94 94 20 	call	0x4128	; 0x4128 <i2c_Read>
     6e0:	c8 2b       	or	r28, r24
     6e2:	0e 94 ad 20 	call	0x415a	; 0x415a <i2c_Stop>
     6e6:	ce 01       	movw	r24, r28
     6e8:	df 91       	pop	r29
     6ea:	cf 91       	pop	r28
     6ec:	08 95       	ret

000006ee <readReg32Bit>:
     6ee:	cf 92       	push	r12
     6f0:	df 92       	push	r13
     6f2:	ef 92       	push	r14
     6f4:	ff 92       	push	r15
     6f6:	cf 93       	push	r28
     6f8:	df 93       	push	r29
     6fa:	00 d0       	rcall	.+0      	; 0x6fc <readReg32Bit+0xe>
     6fc:	00 d0       	rcall	.+0      	; 0x6fe <readReg32Bit+0x10>
     6fe:	cd b7       	in	r28, 0x3d	; 61
     700:	de b7       	in	r29, 0x3e	; 62
     702:	89 83       	std	Y+1, r24	; 0x01
     704:	e0 91 b3 03 	lds	r30, 0x03B3	; 0x8003b3 <vl53l0xsensor>
     708:	f0 91 b4 03 	lds	r31, 0x03B4	; 0x8003b4 <vl53l0xsensor+0x1>
     70c:	40 81       	ld	r20, Z
     70e:	64 85       	ldd	r22, Z+12	; 0x0c
     710:	83 85       	ldd	r24, Z+11	; 0x0b
     712:	0e 94 a3 20 	call	0x4146	; 0x4146 <i2c_Start>
     716:	89 81       	ldd	r24, Y+1	; 0x01
     718:	0e 94 8a 20 	call	0x4114	; 0x4114 <i2c_Write>
     71c:	e0 91 b3 03 	lds	r30, 0x03B3	; 0x8003b3 <vl53l0xsensor>
     720:	f0 91 b4 03 	lds	r31, 0x03B4	; 0x8003b4 <vl53l0xsensor+0x1>
     724:	40 81       	ld	r20, Z
     726:	41 60       	ori	r20, 0x01	; 1
     728:	64 85       	ldd	r22, Z+12	; 0x0c
     72a:	83 85       	ldd	r24, Z+11	; 0x0b
     72c:	0e 94 a3 20 	call	0x4146	; 0x4146 <i2c_Start>
     730:	80 e0       	ldi	r24, 0x00	; 0
     732:	0e 94 94 20 	call	0x4128	; 0x4128 <i2c_Read>
     736:	90 e0       	ldi	r25, 0x00	; 0
     738:	b0 e0       	ldi	r27, 0x00	; 0
     73a:	a0 e0       	ldi	r26, 0x00	; 0
     73c:	f8 2e       	mov	r15, r24
     73e:	ee 24       	eor	r14, r14
     740:	dd 24       	eor	r13, r13
     742:	cc 24       	eor	r12, r12
     744:	80 e0       	ldi	r24, 0x00	; 0
     746:	0e 94 94 20 	call	0x4128	; 0x4128 <i2c_Read>
     74a:	e8 2a       	or	r14, r24
     74c:	80 e0       	ldi	r24, 0x00	; 0
     74e:	0e 94 94 20 	call	0x4128	; 0x4128 <i2c_Read>
     752:	89 83       	std	Y+1, r24	; 0x01
     754:	80 e0       	ldi	r24, 0x00	; 0
     756:	0e 94 94 20 	call	0x4128	; 0x4128 <i2c_Read>
     75a:	c8 2a       	or	r12, r24
     75c:	d7 01       	movw	r26, r14
     75e:	c6 01       	movw	r24, r12
     760:	29 81       	ldd	r18, Y+1	; 0x01
     762:	92 2b       	or	r25, r18
     764:	89 83       	std	Y+1, r24	; 0x01
     766:	9a 83       	std	Y+2, r25	; 0x02
     768:	ab 83       	std	Y+3, r26	; 0x03
     76a:	bc 83       	std	Y+4, r27	; 0x04
     76c:	0e 94 ad 20 	call	0x415a	; 0x415a <i2c_Stop>
     770:	69 81       	ldd	r22, Y+1	; 0x01
     772:	7a 81       	ldd	r23, Y+2	; 0x02
     774:	8b 81       	ldd	r24, Y+3	; 0x03
     776:	9c 81       	ldd	r25, Y+4	; 0x04
     778:	0f 90       	pop	r0
     77a:	0f 90       	pop	r0
     77c:	0f 90       	pop	r0
     77e:	0f 90       	pop	r0
     780:	df 91       	pop	r29
     782:	cf 91       	pop	r28
     784:	ff 90       	pop	r15
     786:	ef 90       	pop	r14
     788:	df 90       	pop	r13
     78a:	cf 90       	pop	r12
     78c:	08 95       	ret

0000078e <writeMulti>:
     78e:	ff 92       	push	r15
     790:	0f 93       	push	r16
     792:	1f 93       	push	r17
     794:	cf 93       	push	r28
     796:	df 93       	push	r29
     798:	c8 2f       	mov	r28, r24
     79a:	06 2f       	mov	r16, r22
     79c:	f7 2e       	mov	r15, r23
     79e:	14 2f       	mov	r17, r20
     7a0:	e0 91 b3 03 	lds	r30, 0x03B3	; 0x8003b3 <vl53l0xsensor>
     7a4:	f0 91 b4 03 	lds	r31, 0x03B4	; 0x8003b4 <vl53l0xsensor+0x1>
     7a8:	40 81       	ld	r20, Z
     7aa:	64 85       	ldd	r22, Z+12	; 0x0c
     7ac:	83 85       	ldd	r24, Z+11	; 0x0b
     7ae:	0e 94 a3 20 	call	0x4146	; 0x4146 <i2c_Start>
     7b2:	8c 2f       	mov	r24, r28
     7b4:	0e 94 8a 20 	call	0x4114	; 0x4114 <i2c_Write>
     7b8:	11 50       	subi	r17, 0x01	; 1
     7ba:	38 f4       	brcc	.+14     	; 0x7ca <writeMulti+0x3c>
     7bc:	df 91       	pop	r29
     7be:	cf 91       	pop	r28
     7c0:	1f 91       	pop	r17
     7c2:	0f 91       	pop	r16
     7c4:	ff 90       	pop	r15
     7c6:	0c 94 ad 20 	jmp	0x415a	; 0x415a <i2c_Stop>
     7ca:	c0 2f       	mov	r28, r16
     7cc:	df 2d       	mov	r29, r15
     7ce:	89 91       	ld	r24, Y+
     7d0:	0e 94 8a 20 	call	0x4114	; 0x4114 <i2c_Write>
     7d4:	0c 2f       	mov	r16, r28
     7d6:	fd 2e       	mov	r15, r29
     7d8:	ef cf       	rjmp	.-34     	; 0x7b8 <writeMulti+0x2a>

000007da <readMulti>:
     7da:	ef 92       	push	r14
     7dc:	ff 92       	push	r15
     7de:	0f 93       	push	r16
     7e0:	1f 93       	push	r17
     7e2:	cf 93       	push	r28
     7e4:	df 93       	push	r29
     7e6:	d8 2f       	mov	r29, r24
     7e8:	8b 01       	movw	r16, r22
     7ea:	c4 2f       	mov	r28, r20
     7ec:	e0 91 b3 03 	lds	r30, 0x03B3	; 0x8003b3 <vl53l0xsensor>
     7f0:	f0 91 b4 03 	lds	r31, 0x03B4	; 0x8003b4 <vl53l0xsensor+0x1>
     7f4:	40 81       	ld	r20, Z
     7f6:	64 85       	ldd	r22, Z+12	; 0x0c
     7f8:	83 85       	ldd	r24, Z+11	; 0x0b
     7fa:	0e 94 a3 20 	call	0x4146	; 0x4146 <i2c_Start>
     7fe:	8d 2f       	mov	r24, r29
     800:	0e 94 8a 20 	call	0x4114	; 0x4114 <i2c_Write>
     804:	e0 91 b3 03 	lds	r30, 0x03B3	; 0x8003b3 <vl53l0xsensor>
     808:	f0 91 b4 03 	lds	r31, 0x03B4	; 0x8003b4 <vl53l0xsensor+0x1>
     80c:	40 81       	ld	r20, Z
     80e:	41 60       	ori	r20, 0x01	; 1
     810:	64 85       	ldd	r22, Z+12	; 0x0c
     812:	83 85       	ldd	r24, Z+11	; 0x0b
     814:	0e 94 a3 20 	call	0x4146	; 0x4146 <i2c_Start>
     818:	c1 11       	cpse	r28, r1
     81a:	08 c0       	rjmp	.+16     	; 0x82c <readMulti+0x52>
     81c:	df 91       	pop	r29
     81e:	cf 91       	pop	r28
     820:	1f 91       	pop	r17
     822:	0f 91       	pop	r16
     824:	ff 90       	pop	r15
     826:	ef 90       	pop	r14
     828:	0c 94 ad 20 	jmp	0x415a	; 0x415a <i2c_Stop>
     82c:	78 01       	movw	r14, r16
     82e:	8f ef       	ldi	r24, 0xFF	; 255
     830:	e8 1a       	sub	r14, r24
     832:	f8 0a       	sbc	r15, r24
     834:	80 e0       	ldi	r24, 0x00	; 0
     836:	0e 94 94 20 	call	0x4128	; 0x4128 <i2c_Read>
     83a:	f8 01       	movw	r30, r16
     83c:	80 83       	st	Z, r24
     83e:	c1 50       	subi	r28, 0x01	; 1
     840:	87 01       	movw	r16, r14
     842:	ea cf       	rjmp	.-44     	; 0x818 <readMulti+0x3e>

00000844 <setAddress>:
     844:	cf 93       	push	r28
     846:	c8 2f       	mov	r28, r24
     848:	68 2f       	mov	r22, r24
     84a:	66 95       	lsr	r22
     84c:	8a e8       	ldi	r24, 0x8A	; 138
     84e:	0e 94 d1 02 	call	0x5a2	; 0x5a2 <writeReg>
     852:	e0 91 b3 03 	lds	r30, 0x03B3	; 0x8003b3 <vl53l0xsensor>
     856:	f0 91 b4 03 	lds	r31, 0x03B4	; 0x8003b4 <vl53l0xsensor+0x1>
     85a:	c0 83       	st	Z, r28
     85c:	cf 91       	pop	r28
     85e:	08 95       	ret

00000860 <getAddress>:
     860:	e0 91 b3 03 	lds	r30, 0x03B3	; 0x8003b3 <vl53l0xsensor>
     864:	f0 91 b4 03 	lds	r31, 0x03B4	; 0x8003b4 <vl53l0xsensor+0x1>
     868:	80 81       	ld	r24, Z
     86a:	08 95       	ret

0000086c <getSpadInfo>:
     86c:	ef 92       	push	r14
     86e:	ff 92       	push	r15
     870:	0f 93       	push	r16
     872:	1f 93       	push	r17
     874:	cf 93       	push	r28
     876:	df 93       	push	r29
     878:	00 d0       	rcall	.+0      	; 0x87a <getSpadInfo+0xe>
     87a:	00 d0       	rcall	.+0      	; 0x87c <getSpadInfo+0x10>
     87c:	0f 92       	push	r0
     87e:	cd b7       	in	r28, 0x3d	; 61
     880:	de b7       	in	r29, 0x3e	; 62
     882:	7c 01       	movw	r14, r24
     884:	8b 01       	movw	r16, r22
     886:	61 e0       	ldi	r22, 0x01	; 1
     888:	80 e8       	ldi	r24, 0x80	; 128
     88a:	0e 94 d1 02 	call	0x5a2	; 0x5a2 <writeReg>
     88e:	61 e0       	ldi	r22, 0x01	; 1
     890:	8f ef       	ldi	r24, 0xFF	; 255
     892:	0e 94 d1 02 	call	0x5a2	; 0x5a2 <writeReg>
     896:	60 e0       	ldi	r22, 0x00	; 0
     898:	80 e0       	ldi	r24, 0x00	; 0
     89a:	0e 94 d1 02 	call	0x5a2	; 0x5a2 <writeReg>
     89e:	66 e0       	ldi	r22, 0x06	; 6
     8a0:	8f ef       	ldi	r24, 0xFF	; 255
     8a2:	0e 94 d1 02 	call	0x5a2	; 0x5a2 <writeReg>
     8a6:	83 e8       	ldi	r24, 0x83	; 131
     8a8:	0e 94 2c 03 	call	0x658	; 0x658 <readReg>
     8ac:	68 2f       	mov	r22, r24
     8ae:	64 60       	ori	r22, 0x04	; 4
     8b0:	83 e8       	ldi	r24, 0x83	; 131
     8b2:	0e 94 d1 02 	call	0x5a2	; 0x5a2 <writeReg>
     8b6:	67 e0       	ldi	r22, 0x07	; 7
     8b8:	8f ef       	ldi	r24, 0xFF	; 255
     8ba:	0e 94 d1 02 	call	0x5a2	; 0x5a2 <writeReg>
     8be:	61 e0       	ldi	r22, 0x01	; 1
     8c0:	81 e8       	ldi	r24, 0x81	; 129
     8c2:	0e 94 d1 02 	call	0x5a2	; 0x5a2 <writeReg>
     8c6:	61 e0       	ldi	r22, 0x01	; 1
     8c8:	80 e8       	ldi	r24, 0x80	; 128
     8ca:	0e 94 d1 02 	call	0x5a2	; 0x5a2 <writeReg>
     8ce:	6b e6       	ldi	r22, 0x6B	; 107
     8d0:	84 e9       	ldi	r24, 0x94	; 148
     8d2:	0e 94 d1 02 	call	0x5a2	; 0x5a2 <writeReg>
     8d6:	60 e0       	ldi	r22, 0x00	; 0
     8d8:	83 e8       	ldi	r24, 0x83	; 131
     8da:	0e 94 d1 02 	call	0x5a2	; 0x5a2 <writeReg>
     8de:	0e 94 f2 1f 	call	0x3fe4	; 0x3fe4 <hal_millis>
     8e2:	e0 91 b3 03 	lds	r30, 0x03B3	; 0x8003b3 <vl53l0xsensor>
     8e6:	f0 91 b4 03 	lds	r31, 0x03B4	; 0x8003b4 <vl53l0xsensor+0x1>
     8ea:	75 83       	std	Z+5, r23	; 0x05
     8ec:	64 83       	std	Z+4, r22	; 0x04
     8ee:	83 e8       	ldi	r24, 0x83	; 131
     8f0:	0e 94 2c 03 	call	0x658	; 0x658 <readReg>
     8f4:	8d 83       	std	Y+5, r24	; 0x05
     8f6:	88 23       	and	r24, r24
     8f8:	99 f1       	breq	.+102    	; 0x960 <__stack+0x61>
     8fa:	61 e0       	ldi	r22, 0x01	; 1
     8fc:	83 e8       	ldi	r24, 0x83	; 131
     8fe:	0e 94 d1 02 	call	0x5a2	; 0x5a2 <writeReg>
     902:	82 e9       	ldi	r24, 0x92	; 146
     904:	0e 94 2c 03 	call	0x658	; 0x658 <readReg>
     908:	98 2f       	mov	r25, r24
     90a:	9f 77       	andi	r25, 0x7F	; 127
     90c:	f7 01       	movw	r30, r14
     90e:	90 83       	st	Z, r25
     910:	88 1f       	adc	r24, r24
     912:	88 27       	eor	r24, r24
     914:	88 1f       	adc	r24, r24
     916:	f8 01       	movw	r30, r16
     918:	80 83       	st	Z, r24
     91a:	60 e0       	ldi	r22, 0x00	; 0
     91c:	81 e8       	ldi	r24, 0x81	; 129
     91e:	0e 94 d1 02 	call	0x5a2	; 0x5a2 <writeReg>
     922:	66 e0       	ldi	r22, 0x06	; 6
     924:	8f ef       	ldi	r24, 0xFF	; 255
     926:	0e 94 d1 02 	call	0x5a2	; 0x5a2 <writeReg>
     92a:	83 e8       	ldi	r24, 0x83	; 131
     92c:	0e 94 2c 03 	call	0x658	; 0x658 <readReg>
     930:	68 2f       	mov	r22, r24
     932:	6b 7f       	andi	r22, 0xFB	; 251
     934:	83 e8       	ldi	r24, 0x83	; 131
     936:	0e 94 d1 02 	call	0x5a2	; 0x5a2 <writeReg>
     93a:	61 e0       	ldi	r22, 0x01	; 1
     93c:	8f ef       	ldi	r24, 0xFF	; 255
     93e:	0e 94 d1 02 	call	0x5a2	; 0x5a2 <writeReg>
     942:	61 e0       	ldi	r22, 0x01	; 1
     944:	80 e0       	ldi	r24, 0x00	; 0
     946:	0e 94 d1 02 	call	0x5a2	; 0x5a2 <writeReg>
     94a:	60 e0       	ldi	r22, 0x00	; 0
     94c:	8f ef       	ldi	r24, 0xFF	; 255
     94e:	0e 94 d1 02 	call	0x5a2	; 0x5a2 <writeReg>
     952:	60 e0       	ldi	r22, 0x00	; 0
     954:	80 e8       	ldi	r24, 0x80	; 128
     956:	0e 94 d1 02 	call	0x5a2	; 0x5a2 <writeReg>
     95a:	f1 e0       	ldi	r31, 0x01	; 1
     95c:	fd 83       	std	Y+5, r31	; 0x05
     95e:	20 c0       	rjmp	.+64     	; 0x9a0 <__stack+0xa1>
     960:	e0 91 b3 03 	lds	r30, 0x03B3	; 0x8003b3 <vl53l0xsensor>
     964:	f0 91 b4 03 	lds	r31, 0x03B4	; 0x8003b4 <vl53l0xsensor+0x1>
     968:	81 81       	ldd	r24, Z+1	; 0x01
     96a:	92 81       	ldd	r25, Z+2	; 0x02
     96c:	89 2b       	or	r24, r25
     96e:	09 f4       	brne	.+2      	; 0x972 <__stack+0x73>
     970:	be cf       	rjmp	.-132    	; 0x8ee <getSpadInfo+0x82>
     972:	0e 94 f2 1f 	call	0x3fe4	; 0x3fe4 <hal_millis>
     976:	69 83       	std	Y+1, r22	; 0x01
     978:	7a 83       	std	Y+2, r23	; 0x02
     97a:	8b 83       	std	Y+3, r24	; 0x03
     97c:	9c 83       	std	Y+4, r25	; 0x04
     97e:	e0 91 b3 03 	lds	r30, 0x03B3	; 0x8003b3 <vl53l0xsensor>
     982:	f0 91 b4 03 	lds	r31, 0x03B4	; 0x8003b4 <vl53l0xsensor+0x1>
     986:	84 81       	ldd	r24, Z+4	; 0x04
     988:	95 81       	ldd	r25, Z+5	; 0x05
     98a:	29 81       	ldd	r18, Y+1	; 0x01
     98c:	3a 81       	ldd	r19, Y+2	; 0x02
     98e:	28 1b       	sub	r18, r24
     990:	39 0b       	sbc	r19, r25
     992:	c9 01       	movw	r24, r18
     994:	21 81       	ldd	r18, Z+1	; 0x01
     996:	32 81       	ldd	r19, Z+2	; 0x02
     998:	28 17       	cp	r18, r24
     99a:	39 07       	cpc	r19, r25
     99c:	08 f0       	brcs	.+2      	; 0x9a0 <__stack+0xa1>
     99e:	a7 cf       	rjmp	.-178    	; 0x8ee <getSpadInfo+0x82>
     9a0:	8d 81       	ldd	r24, Y+5	; 0x05
     9a2:	0f 90       	pop	r0
     9a4:	0f 90       	pop	r0
     9a6:	0f 90       	pop	r0
     9a8:	0f 90       	pop	r0
     9aa:	0f 90       	pop	r0
     9ac:	df 91       	pop	r29
     9ae:	cf 91       	pop	r28
     9b0:	1f 91       	pop	r17
     9b2:	0f 91       	pop	r16
     9b4:	ff 90       	pop	r15
     9b6:	ef 90       	pop	r14
     9b8:	08 95       	ret

000009ba <timeoutMclksToMicroseconds>:
     9ba:	cf 92       	push	r12
     9bc:	df 92       	push	r13
     9be:	ef 92       	push	r14
     9c0:	ff 92       	push	r15
     9c2:	cf 93       	push	r28
     9c4:	df 93       	push	r29
     9c6:	cd b7       	in	r28, 0x3d	; 61
     9c8:	de b7       	in	r29, 0x3e	; 62
     9ca:	28 97       	sbiw	r28, 0x08	; 8
     9cc:	0f b6       	in	r0, 0x3f	; 63
     9ce:	f8 94       	cli
     9d0:	de bf       	out	0x3e, r29	; 62
     9d2:	0f be       	out	0x3f, r0	; 63
     9d4:	cd bf       	out	0x3d, r28	; 61
     9d6:	9e 83       	std	Y+6, r25	; 0x06
     9d8:	8d 83       	std	Y+5, r24	; 0x05
     9da:	a6 2f       	mov	r26, r22
     9dc:	b0 e0       	ldi	r27, 0x00	; 0
     9de:	20 e0       	ldi	r18, 0x00	; 0
     9e0:	3f e2       	ldi	r19, 0x2F	; 47
     9e2:	4a e3       	ldi	r20, 0x3A	; 58
     9e4:	50 e0       	ldi	r21, 0x00	; 0
     9e6:	0e 94 44 21 	call	0x4288	; 0x4288 <__muluhisi3>
     9ea:	dc 01       	movw	r26, r24
     9ec:	cb 01       	movw	r24, r22
     9ee:	8c 50       	subi	r24, 0x0C	; 12
     9f0:	9e 4f       	sbci	r25, 0xFE	; 254
     9f2:	af 4f       	sbci	r26, 0xFF	; 255
     9f4:	bf 4f       	sbci	r27, 0xFF	; 255
     9f6:	89 83       	std	Y+1, r24	; 0x01
     9f8:	9a 83       	std	Y+2, r25	; 0x02
     9fa:	ab 83       	std	Y+3, r26	; 0x03
     9fc:	bc 83       	std	Y+4, r27	; 0x04
     9fe:	28 ee       	ldi	r18, 0xE8	; 232
     a00:	c2 2e       	mov	r12, r18
     a02:	23 e0       	ldi	r18, 0x03	; 3
     a04:	d2 2e       	mov	r13, r18
     a06:	e1 2c       	mov	r14, r1
     a08:	f1 2c       	mov	r15, r1
     a0a:	bc 01       	movw	r22, r24
     a0c:	cd 01       	movw	r24, r26
     a0e:	a7 01       	movw	r20, r14
     a10:	96 01       	movw	r18, r12
     a12:	0e 94 f4 20 	call	0x41e8	; 0x41e8 <__udivmodsi4>
     a16:	ad 81       	ldd	r26, Y+5	; 0x05
     a18:	be 81       	ldd	r27, Y+6	; 0x06
     a1a:	0e 94 44 21 	call	0x4288	; 0x4288 <__muluhisi3>
     a1e:	6d 83       	std	Y+5, r22	; 0x05
     a20:	7e 83       	std	Y+6, r23	; 0x06
     a22:	8f 83       	std	Y+7, r24	; 0x07
     a24:	98 87       	std	Y+8, r25	; 0x08
     a26:	69 81       	ldd	r22, Y+1	; 0x01
     a28:	7a 81       	ldd	r23, Y+2	; 0x02
     a2a:	8b 81       	ldd	r24, Y+3	; 0x03
     a2c:	9c 81       	ldd	r25, Y+4	; 0x04
     a2e:	20 ed       	ldi	r18, 0xD0	; 208
     a30:	37 e0       	ldi	r19, 0x07	; 7
     a32:	40 e0       	ldi	r20, 0x00	; 0
     a34:	50 e0       	ldi	r21, 0x00	; 0
     a36:	0e 94 f4 20 	call	0x41e8	; 0x41e8 <__udivmodsi4>
     a3a:	8d 81       	ldd	r24, Y+5	; 0x05
     a3c:	9e 81       	ldd	r25, Y+6	; 0x06
     a3e:	af 81       	ldd	r26, Y+7	; 0x07
     a40:	b8 85       	ldd	r27, Y+8	; 0x08
     a42:	82 0f       	add	r24, r18
     a44:	93 1f       	adc	r25, r19
     a46:	a4 1f       	adc	r26, r20
     a48:	b5 1f       	adc	r27, r21
     a4a:	bc 01       	movw	r22, r24
     a4c:	cd 01       	movw	r24, r26
     a4e:	a7 01       	movw	r20, r14
     a50:	96 01       	movw	r18, r12
     a52:	0e 94 f4 20 	call	0x41e8	; 0x41e8 <__udivmodsi4>
     a56:	ca 01       	movw	r24, r20
     a58:	b9 01       	movw	r22, r18
     a5a:	28 96       	adiw	r28, 0x08	; 8
     a5c:	0f b6       	in	r0, 0x3f	; 63
     a5e:	f8 94       	cli
     a60:	de bf       	out	0x3e, r29	; 62
     a62:	0f be       	out	0x3f, r0	; 63
     a64:	cd bf       	out	0x3d, r28	; 61
     a66:	df 91       	pop	r29
     a68:	cf 91       	pop	r28
     a6a:	ff 90       	pop	r15
     a6c:	ef 90       	pop	r14
     a6e:	df 90       	pop	r13
     a70:	cf 90       	pop	r12
     a72:	08 95       	ret

00000a74 <timeoutMicrosecondsToMclks>:
     a74:	cf 93       	push	r28
     a76:	df 93       	push	r29
     a78:	cd b7       	in	r28, 0x3d	; 61
     a7a:	de b7       	in	r29, 0x3e	; 62
     a7c:	28 97       	sbiw	r28, 0x08	; 8
     a7e:	0f b6       	in	r0, 0x3f	; 63
     a80:	f8 94       	cli
     a82:	de bf       	out	0x3e, r29	; 62
     a84:	0f be       	out	0x3f, r0	; 63
     a86:	cd bf       	out	0x3d, r28	; 61
     a88:	6d 83       	std	Y+5, r22	; 0x05
     a8a:	7e 83       	std	Y+6, r23	; 0x06
     a8c:	8f 83       	std	Y+7, r24	; 0x07
     a8e:	98 87       	std	Y+8, r25	; 0x08
     a90:	a4 2f       	mov	r26, r20
     a92:	b0 e0       	ldi	r27, 0x00	; 0
     a94:	20 e0       	ldi	r18, 0x00	; 0
     a96:	3f e2       	ldi	r19, 0x2F	; 47
     a98:	4a e3       	ldi	r20, 0x3A	; 58
     a9a:	50 e0       	ldi	r21, 0x00	; 0
     a9c:	0e 94 44 21 	call	0x4288	; 0x4288 <__muluhisi3>
     aa0:	dc 01       	movw	r26, r24
     aa2:	cb 01       	movw	r24, r22
     aa4:	8c 50       	subi	r24, 0x0C	; 12
     aa6:	9e 4f       	sbci	r25, 0xFE	; 254
     aa8:	af 4f       	sbci	r26, 0xFF	; 255
     aaa:	bf 4f       	sbci	r27, 0xFF	; 255
     aac:	89 83       	std	Y+1, r24	; 0x01
     aae:	9a 83       	std	Y+2, r25	; 0x02
     ab0:	ab 83       	std	Y+3, r26	; 0x03
     ab2:	bc 83       	std	Y+4, r27	; 0x04
     ab4:	a8 ee       	ldi	r26, 0xE8	; 232
     ab6:	b3 e0       	ldi	r27, 0x03	; 3
     ab8:	2d 81       	ldd	r18, Y+5	; 0x05
     aba:	3e 81       	ldd	r19, Y+6	; 0x06
     abc:	4f 81       	ldd	r20, Y+7	; 0x07
     abe:	58 85       	ldd	r21, Y+8	; 0x08
     ac0:	0e 94 44 21 	call	0x4288	; 0x4288 <__muluhisi3>
     ac4:	6d 83       	std	Y+5, r22	; 0x05
     ac6:	7e 83       	std	Y+6, r23	; 0x06
     ac8:	8f 83       	std	Y+7, r24	; 0x07
     aca:	98 87       	std	Y+8, r25	; 0x08
     acc:	69 81       	ldd	r22, Y+1	; 0x01
     ace:	7a 81       	ldd	r23, Y+2	; 0x02
     ad0:	8b 81       	ldd	r24, Y+3	; 0x03
     ad2:	9c 81       	ldd	r25, Y+4	; 0x04
     ad4:	20 ed       	ldi	r18, 0xD0	; 208
     ad6:	37 e0       	ldi	r19, 0x07	; 7
     ad8:	40 e0       	ldi	r20, 0x00	; 0
     ada:	50 e0       	ldi	r21, 0x00	; 0
     adc:	0e 94 f4 20 	call	0x41e8	; 0x41e8 <__udivmodsi4>
     ae0:	8d 81       	ldd	r24, Y+5	; 0x05
     ae2:	9e 81       	ldd	r25, Y+6	; 0x06
     ae4:	af 81       	ldd	r26, Y+7	; 0x07
     ae6:	b8 85       	ldd	r27, Y+8	; 0x08
     ae8:	82 0f       	add	r24, r18
     aea:	93 1f       	adc	r25, r19
     aec:	a4 1f       	adc	r26, r20
     aee:	b5 1f       	adc	r27, r21
     af0:	8d 83       	std	Y+5, r24	; 0x05
     af2:	9e 83       	std	Y+6, r25	; 0x06
     af4:	af 83       	std	Y+7, r26	; 0x07
     af6:	b8 87       	std	Y+8, r27	; 0x08
     af8:	69 81       	ldd	r22, Y+1	; 0x01
     afa:	7a 81       	ldd	r23, Y+2	; 0x02
     afc:	8b 81       	ldd	r24, Y+3	; 0x03
     afe:	9c 81       	ldd	r25, Y+4	; 0x04
     b00:	28 ee       	ldi	r18, 0xE8	; 232
     b02:	33 e0       	ldi	r19, 0x03	; 3
     b04:	40 e0       	ldi	r20, 0x00	; 0
     b06:	50 e0       	ldi	r21, 0x00	; 0
     b08:	0e 94 f4 20 	call	0x41e8	; 0x41e8 <__udivmodsi4>
     b0c:	6d 81       	ldd	r22, Y+5	; 0x05
     b0e:	7e 81       	ldd	r23, Y+6	; 0x06
     b10:	8f 81       	ldd	r24, Y+7	; 0x07
     b12:	98 85       	ldd	r25, Y+8	; 0x08
     b14:	0e 94 f4 20 	call	0x41e8	; 0x41e8 <__udivmodsi4>
     b18:	ca 01       	movw	r24, r20
     b1a:	b9 01       	movw	r22, r18
     b1c:	28 96       	adiw	r28, 0x08	; 8
     b1e:	0f b6       	in	r0, 0x3f	; 63
     b20:	f8 94       	cli
     b22:	de bf       	out	0x3e, r29	; 62
     b24:	0f be       	out	0x3f, r0	; 63
     b26:	cd bf       	out	0x3d, r28	; 61
     b28:	df 91       	pop	r29
     b2a:	cf 91       	pop	r28
     b2c:	08 95       	ret

00000b2e <performSingleRefCalibration>:
     b2e:	cf 93       	push	r28
     b30:	df 93       	push	r29
     b32:	00 d0       	rcall	.+0      	; 0xb34 <performSingleRefCalibration+0x6>
     b34:	00 d0       	rcall	.+0      	; 0xb36 <performSingleRefCalibration+0x8>
     b36:	0f 92       	push	r0
     b38:	cd b7       	in	r28, 0x3d	; 61
     b3a:	de b7       	in	r29, 0x3e	; 62
     b3c:	68 2f       	mov	r22, r24
     b3e:	61 60       	ori	r22, 0x01	; 1
     b40:	80 e0       	ldi	r24, 0x00	; 0
     b42:	0e 94 d1 02 	call	0x5a2	; 0x5a2 <writeReg>
     b46:	0e 94 f2 1f 	call	0x3fe4	; 0x3fe4 <hal_millis>
     b4a:	e0 91 b3 03 	lds	r30, 0x03B3	; 0x8003b3 <vl53l0xsensor>
     b4e:	f0 91 b4 03 	lds	r31, 0x03B4	; 0x8003b4 <vl53l0xsensor+0x1>
     b52:	75 83       	std	Z+5, r23	; 0x05
     b54:	64 83       	std	Z+4, r22	; 0x04
     b56:	83 e1       	ldi	r24, 0x13	; 19
     b58:	0e 94 2c 03 	call	0x658	; 0x658 <readReg>
     b5c:	87 70       	andi	r24, 0x07	; 7
     b5e:	8d 83       	std	Y+5, r24	; 0x05
     b60:	88 23       	and	r24, r24
     b62:	59 f0       	breq	.+22     	; 0xb7a <performSingleRefCalibration+0x4c>
     b64:	61 e0       	ldi	r22, 0x01	; 1
     b66:	8b e0       	ldi	r24, 0x0B	; 11
     b68:	0e 94 d1 02 	call	0x5a2	; 0x5a2 <writeReg>
     b6c:	60 e0       	ldi	r22, 0x00	; 0
     b6e:	80 e0       	ldi	r24, 0x00	; 0
     b70:	0e 94 d1 02 	call	0x5a2	; 0x5a2 <writeReg>
     b74:	31 e0       	ldi	r19, 0x01	; 1
     b76:	3d 83       	std	Y+5, r19	; 0x05
     b78:	1e c0       	rjmp	.+60     	; 0xbb6 <performSingleRefCalibration+0x88>
     b7a:	e0 91 b3 03 	lds	r30, 0x03B3	; 0x8003b3 <vl53l0xsensor>
     b7e:	f0 91 b4 03 	lds	r31, 0x03B4	; 0x8003b4 <vl53l0xsensor+0x1>
     b82:	81 81       	ldd	r24, Z+1	; 0x01
     b84:	92 81       	ldd	r25, Z+2	; 0x02
     b86:	89 2b       	or	r24, r25
     b88:	31 f3       	breq	.-52     	; 0xb56 <performSingleRefCalibration+0x28>
     b8a:	0e 94 f2 1f 	call	0x3fe4	; 0x3fe4 <hal_millis>
     b8e:	69 83       	std	Y+1, r22	; 0x01
     b90:	7a 83       	std	Y+2, r23	; 0x02
     b92:	8b 83       	std	Y+3, r24	; 0x03
     b94:	9c 83       	std	Y+4, r25	; 0x04
     b96:	e0 91 b3 03 	lds	r30, 0x03B3	; 0x8003b3 <vl53l0xsensor>
     b9a:	f0 91 b4 03 	lds	r31, 0x03B4	; 0x8003b4 <vl53l0xsensor+0x1>
     b9e:	84 81       	ldd	r24, Z+4	; 0x04
     ba0:	95 81       	ldd	r25, Z+5	; 0x05
     ba2:	29 81       	ldd	r18, Y+1	; 0x01
     ba4:	3a 81       	ldd	r19, Y+2	; 0x02
     ba6:	28 1b       	sub	r18, r24
     ba8:	39 0b       	sbc	r19, r25
     baa:	c9 01       	movw	r24, r18
     bac:	21 81       	ldd	r18, Z+1	; 0x01
     bae:	32 81       	ldd	r19, Z+2	; 0x02
     bb0:	28 17       	cp	r18, r24
     bb2:	39 07       	cpc	r19, r25
     bb4:	80 f6       	brcc	.-96     	; 0xb56 <performSingleRefCalibration+0x28>
     bb6:	8d 81       	ldd	r24, Y+5	; 0x05
     bb8:	0f 90       	pop	r0
     bba:	0f 90       	pop	r0
     bbc:	0f 90       	pop	r0
     bbe:	0f 90       	pop	r0
     bc0:	0f 90       	pop	r0
     bc2:	df 91       	pop	r29
     bc4:	cf 91       	pop	r28
     bc6:	08 95       	ret

00000bc8 <decodeTimeout>:
     bc8:	29 2f       	mov	r18, r25
     bca:	90 e0       	ldi	r25, 0x00	; 0
     bcc:	02 c0       	rjmp	.+4      	; 0xbd2 <decodeTimeout+0xa>
     bce:	88 0f       	add	r24, r24
     bd0:	99 1f       	adc	r25, r25
     bd2:	2a 95       	dec	r18
     bd4:	e2 f7       	brpl	.-8      	; 0xbce <decodeTimeout+0x6>
     bd6:	01 96       	adiw	r24, 0x01	; 1
     bd8:	08 95       	ret

00000bda <encodeTimeout>:
     bda:	0f 93       	push	r16
     bdc:	1f 93       	push	r17
     bde:	00 97       	sbiw	r24, 0x00	; 0
     be0:	81 f0       	breq	.+32     	; 0xc02 <encodeTimeout+0x28>
     be2:	01 97       	sbiw	r24, 0x01	; 1
     be4:	b0 e0       	ldi	r27, 0x00	; 0
     be6:	a0 e0       	ldi	r26, 0x00	; 0
     be8:	50 e0       	ldi	r21, 0x00	; 0
     bea:	40 e0       	ldi	r20, 0x00	; 0
     bec:	8c 01       	movw	r16, r24
     bee:	9d 01       	movw	r18, r26
     bf0:	00 27       	eor	r16, r16
     bf2:	01 2b       	or	r16, r17
     bf4:	02 2b       	or	r16, r18
     bf6:	03 2b       	or	r16, r19
     bf8:	39 f4       	brne	.+14     	; 0xc08 <encodeTimeout+0x2e>
     bfa:	34 2f       	mov	r19, r20
     bfc:	22 27       	eor	r18, r18
     bfe:	82 2b       	or	r24, r18
     c00:	93 2b       	or	r25, r19
     c02:	1f 91       	pop	r17
     c04:	0f 91       	pop	r16
     c06:	08 95       	ret
     c08:	b6 95       	lsr	r27
     c0a:	a7 95       	ror	r26
     c0c:	97 95       	ror	r25
     c0e:	87 95       	ror	r24
     c10:	4f 5f       	subi	r20, 0xFF	; 255
     c12:	5f 4f       	sbci	r21, 0xFF	; 255
     c14:	eb cf       	rjmp	.-42     	; 0xbec <encodeTimeout+0x12>

00000c16 <getSequenceStepEnables>:
     c16:	cf 93       	push	r28
     c18:	df 93       	push	r29
     c1a:	ec 01       	movw	r28, r24
     c1c:	81 e0       	ldi	r24, 0x01	; 1
     c1e:	0e 94 2c 03 	call	0x658	; 0x658 <readReg>
     c22:	84 fb       	bst	r24, 4
     c24:	99 27       	eor	r25, r25
     c26:	90 f9       	bld	r25, 0
     c28:	98 83       	st	Y, r25
     c2a:	83 fb       	bst	r24, 3
     c2c:	99 27       	eor	r25, r25
     c2e:	90 f9       	bld	r25, 0
     c30:	9a 83       	std	Y+2, r25	; 0x02
     c32:	82 fb       	bst	r24, 2
     c34:	99 27       	eor	r25, r25
     c36:	90 f9       	bld	r25, 0
     c38:	99 83       	std	Y+1, r25	; 0x01
     c3a:	86 fb       	bst	r24, 6
     c3c:	99 27       	eor	r25, r25
     c3e:	90 f9       	bld	r25, 0
     c40:	9b 83       	std	Y+3, r25	; 0x03
     c42:	88 1f       	adc	r24, r24
     c44:	88 27       	eor	r24, r24
     c46:	88 1f       	adc	r24, r24
     c48:	8c 83       	std	Y+4, r24	; 0x04
     c4a:	df 91       	pop	r29
     c4c:	cf 91       	pop	r28
     c4e:	08 95       	ret

00000c50 <setSignalRateLimit>:
     c50:	cf 93       	push	r28
     c52:	df 93       	push	r29
     c54:	00 d0       	rcall	.+0      	; 0xc56 <setSignalRateLimit+0x6>
     c56:	00 d0       	rcall	.+0      	; 0xc58 <setSignalRateLimit+0x8>
     c58:	cd b7       	in	r28, 0x3d	; 61
     c5a:	de b7       	in	r29, 0x3e	; 62
     c5c:	46 2f       	mov	r20, r22
     c5e:	57 2f       	mov	r21, r23
     c60:	bc 01       	movw	r22, r24
     c62:	41 15       	cp	r20, r1
     c64:	88 ec       	ldi	r24, 0xC8	; 200
     c66:	58 07       	cpc	r21, r24
     c68:	61 05       	cpc	r22, r1
     c6a:	71 05       	cpc	r23, r1
     c6c:	e8 f4       	brcc	.+58     	; 0xca8 <setSignalRateLimit+0x58>
     c6e:	db 01       	movw	r26, r22
     c70:	ca 01       	movw	r24, r20
     c72:	27 e0       	ldi	r18, 0x07	; 7
     c74:	88 0f       	add	r24, r24
     c76:	99 1f       	adc	r25, r25
     c78:	aa 1f       	adc	r26, r26
     c7a:	bb 1f       	adc	r27, r27
     c7c:	2a 95       	dec	r18
     c7e:	d1 f7       	brne	.-12     	; 0xc74 <setSignalRateLimit+0x24>
     c80:	bc 01       	movw	r22, r24
     c82:	cd 01       	movw	r24, r26
     c84:	24 e6       	ldi	r18, 0x64	; 100
     c86:	30 e0       	ldi	r19, 0x00	; 0
     c88:	40 e0       	ldi	r20, 0x00	; 0
     c8a:	50 e0       	ldi	r21, 0x00	; 0
     c8c:	0e 94 f4 20 	call	0x41e8	; 0x41e8 <__udivmodsi4>
     c90:	b9 01       	movw	r22, r18
     c92:	84 e4       	ldi	r24, 0x44	; 68
     c94:	0e 94 e8 02 	call	0x5d0	; 0x5d0 <writeReg16Bit>
     c98:	81 e0       	ldi	r24, 0x01	; 1
     c9a:	0f 90       	pop	r0
     c9c:	0f 90       	pop	r0
     c9e:	0f 90       	pop	r0
     ca0:	0f 90       	pop	r0
     ca2:	df 91       	pop	r29
     ca4:	cf 91       	pop	r28
     ca6:	08 95       	ret
     ca8:	80 e0       	ldi	r24, 0x00	; 0
     caa:	f7 cf       	rjmp	.-18     	; 0xc9a <setSignalRateLimit+0x4a>

00000cac <getVcselPulsePeriod>:
     cac:	81 11       	cpse	r24, r1
     cae:	06 c0       	rjmp	.+12     	; 0xcbc <getVcselPulsePeriod+0x10>
     cb0:	80 e5       	ldi	r24, 0x50	; 80
     cb2:	0e 94 2c 03 	call	0x658	; 0x658 <readReg>
     cb6:	8f 5f       	subi	r24, 0xFF	; 255
     cb8:	88 0f       	add	r24, r24
     cba:	08 95       	ret
     cbc:	81 30       	cpi	r24, 0x01	; 1
     cbe:	11 f4       	brne	.+4      	; 0xcc4 <getVcselPulsePeriod+0x18>
     cc0:	80 e7       	ldi	r24, 0x70	; 112
     cc2:	f7 cf       	rjmp	.-18     	; 0xcb2 <getVcselPulsePeriod+0x6>
     cc4:	8f ef       	ldi	r24, 0xFF	; 255
     cc6:	08 95       	ret

00000cc8 <getSequenceStepTimeouts>:
     cc8:	0f 93       	push	r16
     cca:	1f 93       	push	r17
     ccc:	cf 93       	push	r28
     cce:	df 93       	push	r29
     cd0:	8c 01       	movw	r16, r24
     cd2:	eb 01       	movw	r28, r22
     cd4:	80 e5       	ldi	r24, 0x50	; 80
     cd6:	0e 94 2c 03 	call	0x658	; 0x658 <readReg>
     cda:	8f 5f       	subi	r24, 0xFF	; 255
     cdc:	88 0f       	add	r24, r24
     cde:	90 e0       	ldi	r25, 0x00	; 0
     ce0:	99 83       	std	Y+1, r25	; 0x01
     ce2:	88 83       	st	Y, r24
     ce4:	86 e4       	ldi	r24, 0x46	; 70
     ce6:	0e 94 2c 03 	call	0x658	; 0x658 <readReg>
     cea:	90 e0       	ldi	r25, 0x00	; 0
     cec:	01 96       	adiw	r24, 0x01	; 1
     cee:	9d 83       	std	Y+5, r25	; 0x05
     cf0:	8c 83       	std	Y+4, r24	; 0x04
     cf2:	68 81       	ld	r22, Y
     cf4:	0e 94 dd 04 	call	0x9ba	; 0x9ba <timeoutMclksToMicroseconds>
     cf8:	6a 87       	std	Y+10, r22	; 0x0a
     cfa:	7b 87       	std	Y+11, r23	; 0x0b
     cfc:	8c 87       	std	Y+12, r24	; 0x0c
     cfe:	9d 87       	std	Y+13, r25	; 0x0d
     d00:	81 e5       	ldi	r24, 0x51	; 81
     d02:	0e 94 4d 03 	call	0x69a	; 0x69a <readReg16Bit>
     d06:	0e 94 e4 05 	call	0xbc8	; 0xbc8 <decodeTimeout>
     d0a:	8e 83       	std	Y+6, r24	; 0x06
     d0c:	9f 83       	std	Y+7, r25	; 0x07
     d0e:	68 81       	ld	r22, Y
     d10:	0e 94 dd 04 	call	0x9ba	; 0x9ba <timeoutMclksToMicroseconds>
     d14:	6e 87       	std	Y+14, r22	; 0x0e
     d16:	7f 87       	std	Y+15, r23	; 0x0f
     d18:	88 8b       	std	Y+16, r24	; 0x10
     d1a:	99 8b       	std	Y+17, r25	; 0x11
     d1c:	81 e0       	ldi	r24, 0x01	; 1
     d1e:	0e 94 56 06 	call	0xcac	; 0xcac <getVcselPulsePeriod>
     d22:	90 e0       	ldi	r25, 0x00	; 0
     d24:	9b 83       	std	Y+3, r25	; 0x03
     d26:	8a 83       	std	Y+2, r24	; 0x02
     d28:	81 e7       	ldi	r24, 0x71	; 113
     d2a:	0e 94 4d 03 	call	0x69a	; 0x69a <readReg16Bit>
     d2e:	0e 94 e4 05 	call	0xbc8	; 0xbc8 <decodeTimeout>
     d32:	9c 01       	movw	r18, r24
     d34:	99 87       	std	Y+9, r25	; 0x09
     d36:	88 87       	std	Y+8, r24	; 0x08
     d38:	d8 01       	movw	r26, r16
     d3a:	13 96       	adiw	r26, 0x03	; 3
     d3c:	8c 91       	ld	r24, X
     d3e:	88 23       	and	r24, r24
     d40:	31 f0       	breq	.+12     	; 0xd4e <getSequenceStepTimeouts+0x86>
     d42:	8e 81       	ldd	r24, Y+6	; 0x06
     d44:	9f 81       	ldd	r25, Y+7	; 0x07
     d46:	28 1b       	sub	r18, r24
     d48:	39 0b       	sbc	r19, r25
     d4a:	39 87       	std	Y+9, r19	; 0x09
     d4c:	28 87       	std	Y+8, r18	; 0x08
     d4e:	6a 81       	ldd	r22, Y+2	; 0x02
     d50:	88 85       	ldd	r24, Y+8	; 0x08
     d52:	99 85       	ldd	r25, Y+9	; 0x09
     d54:	0e 94 dd 04 	call	0x9ba	; 0x9ba <timeoutMclksToMicroseconds>
     d58:	6a 8b       	std	Y+18, r22	; 0x12
     d5a:	7b 8b       	std	Y+19, r23	; 0x13
     d5c:	8c 8b       	std	Y+20, r24	; 0x14
     d5e:	9d 8b       	std	Y+21, r25	; 0x15
     d60:	df 91       	pop	r29
     d62:	cf 91       	pop	r28
     d64:	1f 91       	pop	r17
     d66:	0f 91       	pop	r16
     d68:	08 95       	ret

00000d6a <setMeasurementTimingBudget>:
     d6a:	cf 92       	push	r12
     d6c:	df 92       	push	r13
     d6e:	ef 92       	push	r14
     d70:	ff 92       	push	r15
     d72:	1f 93       	push	r17
     d74:	cf 93       	push	r28
     d76:	df 93       	push	r29
     d78:	cd b7       	in	r28, 0x3d	; 61
     d7a:	de b7       	in	r29, 0x3e	; 62
     d7c:	6f 97       	sbiw	r28, 0x1f	; 31
     d7e:	0f b6       	in	r0, 0x3f	; 63
     d80:	f8 94       	cli
     d82:	de bf       	out	0x3e, r29	; 62
     d84:	0f be       	out	0x3f, r0	; 63
     d86:	cd bf       	out	0x3d, r28	; 61
     d88:	6b 01       	movw	r12, r22
     d8a:	7c 01       	movw	r14, r24
     d8c:	20 e2       	ldi	r18, 0x20	; 32
     d8e:	c2 16       	cp	r12, r18
     d90:	2e e4       	ldi	r18, 0x4E	; 78
     d92:	d2 06       	cpc	r13, r18
     d94:	e1 04       	cpc	r14, r1
     d96:	f1 04       	cpc	r15, r1
     d98:	08 f4       	brcc	.+2      	; 0xd9c <setMeasurementTimingBudget+0x32>
     d9a:	90 c0       	rjmp	.+288    	; 0xebc <setMeasurementTimingBudget+0x152>
     d9c:	ce 01       	movw	r24, r28
     d9e:	47 96       	adiw	r24, 0x17	; 23
     da0:	0e 94 0b 06 	call	0xc16	; 0xc16 <getSequenceStepEnables>
     da4:	be 01       	movw	r22, r28
     da6:	6f 5f       	subi	r22, 0xFF	; 255
     da8:	7f 4f       	sbci	r23, 0xFF	; 255
     daa:	ce 01       	movw	r24, r28
     dac:	47 96       	adiw	r24, 0x17	; 23
     dae:	0e 94 64 06 	call	0xcc8	; 0xcc8 <getSequenceStepTimeouts>
     db2:	8f 89       	ldd	r24, Y+23	; 0x17
     db4:	88 23       	and	r24, r24
     db6:	09 f4       	brne	.+2      	; 0xdba <setMeasurementTimingBudget+0x50>
     db8:	6f c0       	rjmp	.+222    	; 0xe98 <setMeasurementTimingBudget+0x12e>
     dba:	8b 85       	ldd	r24, Y+11	; 0x0b
     dbc:	9c 85       	ldd	r25, Y+12	; 0x0c
     dbe:	ad 85       	ldd	r26, Y+13	; 0x0d
     dc0:	be 85       	ldd	r27, Y+14	; 0x0e
     dc2:	8a 5c       	subi	r24, 0xCA	; 202
     dc4:	94 4f       	sbci	r25, 0xF4	; 244
     dc6:	af 4f       	sbci	r26, 0xFF	; 255
     dc8:	bf 4f       	sbci	r27, 0xFF	; 255
     dca:	29 8d       	ldd	r18, Y+25	; 0x19
     dcc:	22 23       	and	r18, r18
     dce:	09 f4       	brne	.+2      	; 0xdd2 <setMeasurementTimingBudget+0x68>
     dd0:	68 c0       	rjmp	.+208    	; 0xea2 <setMeasurementTimingBudget+0x138>
     dd2:	4b 85       	ldd	r20, Y+11	; 0x0b
     dd4:	5c 85       	ldd	r21, Y+12	; 0x0c
     dd6:	6d 85       	ldd	r22, Y+13	; 0x0d
     dd8:	7e 85       	ldd	r23, Y+14	; 0x0e
     dda:	4e 54       	subi	r20, 0x4E	; 78
     ddc:	5d 4f       	sbci	r21, 0xFD	; 253
     dde:	6f 4f       	sbci	r22, 0xFF	; 255
     de0:	7f 4f       	sbci	r23, 0xFF	; 255
     de2:	44 0f       	add	r20, r20
     de4:	55 1f       	adc	r21, r21
     de6:	66 1f       	adc	r22, r22
     de8:	77 1f       	adc	r23, r23
     dea:	84 0f       	add	r24, r20
     dec:	95 1f       	adc	r25, r21
     dee:	a6 1f       	adc	r26, r22
     df0:	b7 1f       	adc	r27, r23
     df2:	1a 8d       	ldd	r17, Y+26	; 0x1a
     df4:	11 23       	and	r17, r17
     df6:	61 f0       	breq	.+24     	; 0xe10 <setMeasurementTimingBudget+0xa6>
     df8:	4f 85       	ldd	r20, Y+15	; 0x0f
     dfa:	58 89       	ldd	r21, Y+16	; 0x10
     dfc:	69 89       	ldd	r22, Y+17	; 0x11
     dfe:	7a 89       	ldd	r23, Y+18	; 0x12
     e00:	4c 56       	subi	r20, 0x6C	; 108
     e02:	5d 4f       	sbci	r21, 0xFD	; 253
     e04:	6f 4f       	sbci	r22, 0xFF	; 255
     e06:	7f 4f       	sbci	r23, 0xFF	; 255
     e08:	84 0f       	add	r24, r20
     e0a:	95 1f       	adc	r25, r21
     e0c:	a6 1f       	adc	r26, r22
     e0e:	b7 1f       	adc	r27, r23
     e10:	2b 8d       	ldd	r18, Y+27	; 0x1b
     e12:	22 23       	and	r18, r18
     e14:	91 f1       	breq	.+100    	; 0xe7a <setMeasurementTimingBudget+0x110>
     e16:	8a 5d       	subi	r24, 0xDA	; 218
     e18:	9d 4f       	sbci	r25, 0xFD	; 253
     e1a:	af 4f       	sbci	r26, 0xFF	; 255
     e1c:	bf 4f       	sbci	r27, 0xFF	; 255
     e1e:	c8 16       	cp	r12, r24
     e20:	d9 06       	cpc	r13, r25
     e22:	ea 06       	cpc	r14, r26
     e24:	fb 06       	cpc	r15, r27
     e26:	08 f4       	brcc	.+2      	; 0xe2a <setMeasurementTimingBudget+0xc0>
     e28:	49 c0       	rjmp	.+146    	; 0xebc <setMeasurementTimingBudget+0x152>
     e2a:	a7 01       	movw	r20, r14
     e2c:	96 01       	movw	r18, r12
     e2e:	28 1b       	sub	r18, r24
     e30:	39 0b       	sbc	r19, r25
     e32:	4a 0b       	sbc	r20, r26
     e34:	5b 0b       	sbc	r21, r27
     e36:	2c 8f       	std	Y+28, r18	; 0x1c
     e38:	3d 8f       	std	Y+29, r19	; 0x1d
     e3a:	4e 8f       	std	Y+30, r20	; 0x1e
     e3c:	5f 8f       	std	Y+31, r21	; 0x1f
     e3e:	4b 81       	ldd	r20, Y+3	; 0x03
     e40:	6c 8d       	ldd	r22, Y+28	; 0x1c
     e42:	7d 8d       	ldd	r23, Y+29	; 0x1d
     e44:	8e 8d       	ldd	r24, Y+30	; 0x1e
     e46:	9f 8d       	ldd	r25, Y+31	; 0x1f
     e48:	0e 94 3a 05 	call	0xa74	; 0xa74 <timeoutMicrosecondsToMclks>
     e4c:	46 2f       	mov	r20, r22
     e4e:	57 2f       	mov	r21, r23
     e50:	ca 01       	movw	r24, r20
     e52:	11 23       	and	r17, r17
     e54:	21 f0       	breq	.+8      	; 0xe5e <setMeasurementTimingBudget+0xf4>
     e56:	8f 81       	ldd	r24, Y+7	; 0x07
     e58:	98 85       	ldd	r25, Y+8	; 0x08
     e5a:	84 0f       	add	r24, r20
     e5c:	95 1f       	adc	r25, r21
     e5e:	0e 94 ed 05 	call	0xbda	; 0xbda <encodeTimeout>
     e62:	bc 01       	movw	r22, r24
     e64:	81 e7       	ldi	r24, 0x71	; 113
     e66:	0e 94 e8 02 	call	0x5d0	; 0x5d0 <writeReg16Bit>
     e6a:	e0 91 b3 03 	lds	r30, 0x03B3	; 0x8003b3 <vl53l0xsensor>
     e6e:	f0 91 b4 03 	lds	r31, 0x03B4	; 0x8003b4 <vl53l0xsensor+0x1>
     e72:	c7 82       	std	Z+7, r12	; 0x07
     e74:	d0 86       	std	Z+8, r13	; 0x08
     e76:	e1 86       	std	Z+9, r14	; 0x09
     e78:	f2 86       	std	Z+10, r15	; 0x0a
     e7a:	81 e0       	ldi	r24, 0x01	; 1
     e7c:	6f 96       	adiw	r28, 0x1f	; 31
     e7e:	0f b6       	in	r0, 0x3f	; 63
     e80:	f8 94       	cli
     e82:	de bf       	out	0x3e, r29	; 62
     e84:	0f be       	out	0x3f, r0	; 63
     e86:	cd bf       	out	0x3d, r28	; 61
     e88:	df 91       	pop	r29
     e8a:	cf 91       	pop	r28
     e8c:	1f 91       	pop	r17
     e8e:	ff 90       	pop	r15
     e90:	ef 90       	pop	r14
     e92:	df 90       	pop	r13
     e94:	cf 90       	pop	r12
     e96:	08 95       	ret
     e98:	88 ee       	ldi	r24, 0xE8	; 232
     e9a:	98 e0       	ldi	r25, 0x08	; 8
     e9c:	a0 e0       	ldi	r26, 0x00	; 0
     e9e:	b0 e0       	ldi	r27, 0x00	; 0
     ea0:	94 cf       	rjmp	.-216    	; 0xdca <setMeasurementTimingBudget+0x60>
     ea2:	28 8d       	ldd	r18, Y+24	; 0x18
     ea4:	22 23       	and	r18, r18
     ea6:	09 f4       	brne	.+2      	; 0xeaa <setMeasurementTimingBudget+0x140>
     ea8:	a4 cf       	rjmp	.-184    	; 0xdf2 <setMeasurementTimingBudget+0x88>
     eaa:	4b 85       	ldd	r20, Y+11	; 0x0b
     eac:	5c 85       	ldd	r21, Y+12	; 0x0c
     eae:	6d 85       	ldd	r22, Y+13	; 0x0d
     eb0:	7e 85       	ldd	r23, Y+14	; 0x0e
     eb2:	4c 56       	subi	r20, 0x6C	; 108
     eb4:	5d 4f       	sbci	r21, 0xFD	; 253
     eb6:	6f 4f       	sbci	r22, 0xFF	; 255
     eb8:	7f 4f       	sbci	r23, 0xFF	; 255
     eba:	97 cf       	rjmp	.-210    	; 0xdea <setMeasurementTimingBudget+0x80>
     ebc:	80 e0       	ldi	r24, 0x00	; 0
     ebe:	de cf       	rjmp	.-68     	; 0xe7c <setMeasurementTimingBudget+0x112>

00000ec0 <getMeasurementTimingBudget>:
     ec0:	0f 93       	push	r16
     ec2:	1f 93       	push	r17
     ec4:	cf 93       	push	r28
     ec6:	df 93       	push	r29
     ec8:	cd b7       	in	r28, 0x3d	; 61
     eca:	de b7       	in	r29, 0x3e	; 62
     ecc:	6b 97       	sbiw	r28, 0x1b	; 27
     ece:	0f b6       	in	r0, 0x3f	; 63
     ed0:	f8 94       	cli
     ed2:	de bf       	out	0x3e, r29	; 62
     ed4:	0f be       	out	0x3f, r0	; 63
     ed6:	cd bf       	out	0x3d, r28	; 61
     ed8:	ce 01       	movw	r24, r28
     eda:	47 96       	adiw	r24, 0x17	; 23
     edc:	0e 94 0b 06 	call	0xc16	; 0xc16 <getSequenceStepEnables>
     ee0:	be 01       	movw	r22, r28
     ee2:	6f 5f       	subi	r22, 0xFF	; 255
     ee4:	7f 4f       	sbci	r23, 0xFF	; 255
     ee6:	ce 01       	movw	r24, r28
     ee8:	47 96       	adiw	r24, 0x17	; 23
     eea:	0e 94 64 06 	call	0xcc8	; 0xcc8 <getSequenceStepTimeouts>
     eee:	8f 89       	ldd	r24, Y+23	; 0x17
     ef0:	88 23       	and	r24, r24
     ef2:	09 f4       	brne	.+2      	; 0xef6 <getMeasurementTimingBudget+0x36>
     ef4:	4d c0       	rjmp	.+154    	; 0xf90 <getMeasurementTimingBudget+0xd0>
     ef6:	6b 85       	ldd	r22, Y+11	; 0x0b
     ef8:	7c 85       	ldd	r23, Y+12	; 0x0c
     efa:	8d 85       	ldd	r24, Y+13	; 0x0d
     efc:	9e 85       	ldd	r25, Y+14	; 0x0e
     efe:	6c 57       	subi	r22, 0x7C	; 124
     f00:	72 4f       	sbci	r23, 0xF2	; 242
     f02:	8f 4f       	sbci	r24, 0xFF	; 255
     f04:	9f 4f       	sbci	r25, 0xFF	; 255
     f06:	29 8d       	ldd	r18, Y+25	; 0x19
     f08:	22 23       	and	r18, r18
     f0a:	09 f4       	brne	.+2      	; 0xf0e <getMeasurementTimingBudget+0x4e>
     f0c:	46 c0       	rjmp	.+140    	; 0xf9a <getMeasurementTimingBudget+0xda>
     f0e:	0b 85       	ldd	r16, Y+11	; 0x0b
     f10:	1c 85       	ldd	r17, Y+12	; 0x0c
     f12:	2d 85       	ldd	r18, Y+13	; 0x0d
     f14:	3e 85       	ldd	r19, Y+14	; 0x0e
     f16:	0e 54       	subi	r16, 0x4E	; 78
     f18:	1d 4f       	sbci	r17, 0xFD	; 253
     f1a:	2f 4f       	sbci	r18, 0xFF	; 255
     f1c:	3f 4f       	sbci	r19, 0xFF	; 255
     f1e:	00 0f       	add	r16, r16
     f20:	11 1f       	adc	r17, r17
     f22:	22 1f       	adc	r18, r18
     f24:	33 1f       	adc	r19, r19
     f26:	60 0f       	add	r22, r16
     f28:	71 1f       	adc	r23, r17
     f2a:	82 1f       	adc	r24, r18
     f2c:	93 1f       	adc	r25, r19
     f2e:	2a 8d       	ldd	r18, Y+26	; 0x1a
     f30:	22 23       	and	r18, r18
     f32:	61 f0       	breq	.+24     	; 0xf4c <getMeasurementTimingBudget+0x8c>
     f34:	0f 85       	ldd	r16, Y+15	; 0x0f
     f36:	18 89       	ldd	r17, Y+16	; 0x10
     f38:	29 89       	ldd	r18, Y+17	; 0x11
     f3a:	3a 89       	ldd	r19, Y+18	; 0x12
     f3c:	0c 56       	subi	r16, 0x6C	; 108
     f3e:	1d 4f       	sbci	r17, 0xFD	; 253
     f40:	2f 4f       	sbci	r18, 0xFF	; 255
     f42:	3f 4f       	sbci	r19, 0xFF	; 255
     f44:	60 0f       	add	r22, r16
     f46:	71 1f       	adc	r23, r17
     f48:	82 1f       	adc	r24, r18
     f4a:	93 1f       	adc	r25, r19
     f4c:	2b 8d       	ldd	r18, Y+27	; 0x1b
     f4e:	22 23       	and	r18, r18
     f50:	61 f0       	breq	.+24     	; 0xf6a <getMeasurementTimingBudget+0xaa>
     f52:	0b 89       	ldd	r16, Y+19	; 0x13
     f54:	1c 89       	ldd	r17, Y+20	; 0x14
     f56:	2d 89       	ldd	r18, Y+21	; 0x15
     f58:	3e 89       	ldd	r19, Y+22	; 0x16
     f5a:	0a 5d       	subi	r16, 0xDA	; 218
     f5c:	1d 4f       	sbci	r17, 0xFD	; 253
     f5e:	2f 4f       	sbci	r18, 0xFF	; 255
     f60:	3f 4f       	sbci	r19, 0xFF	; 255
     f62:	60 0f       	add	r22, r16
     f64:	71 1f       	adc	r23, r17
     f66:	82 1f       	adc	r24, r18
     f68:	93 1f       	adc	r25, r19
     f6a:	e0 91 b3 03 	lds	r30, 0x03B3	; 0x8003b3 <vl53l0xsensor>
     f6e:	f0 91 b4 03 	lds	r31, 0x03B4	; 0x8003b4 <vl53l0xsensor+0x1>
     f72:	67 83       	std	Z+7, r22	; 0x07
     f74:	70 87       	std	Z+8, r23	; 0x08
     f76:	81 87       	std	Z+9, r24	; 0x09
     f78:	92 87       	std	Z+10, r25	; 0x0a
     f7a:	6b 96       	adiw	r28, 0x1b	; 27
     f7c:	0f b6       	in	r0, 0x3f	; 63
     f7e:	f8 94       	cli
     f80:	de bf       	out	0x3e, r29	; 62
     f82:	0f be       	out	0x3f, r0	; 63
     f84:	cd bf       	out	0x3d, r28	; 61
     f86:	df 91       	pop	r29
     f88:	cf 91       	pop	r28
     f8a:	1f 91       	pop	r17
     f8c:	0f 91       	pop	r16
     f8e:	08 95       	ret
     f90:	66 e3       	ldi	r22, 0x36	; 54
     f92:	7b e0       	ldi	r23, 0x0B	; 11
     f94:	80 e0       	ldi	r24, 0x00	; 0
     f96:	90 e0       	ldi	r25, 0x00	; 0
     f98:	b6 cf       	rjmp	.-148    	; 0xf06 <getMeasurementTimingBudget+0x46>
     f9a:	28 8d       	ldd	r18, Y+24	; 0x18
     f9c:	22 23       	and	r18, r18
     f9e:	39 f2       	breq	.-114    	; 0xf2e <getMeasurementTimingBudget+0x6e>
     fa0:	0b 85       	ldd	r16, Y+11	; 0x0b
     fa2:	1c 85       	ldd	r17, Y+12	; 0x0c
     fa4:	2d 85       	ldd	r18, Y+13	; 0x0d
     fa6:	3e 85       	ldd	r19, Y+14	; 0x0e
     fa8:	0c 56       	subi	r16, 0x6C	; 108
     faa:	1d 4f       	sbci	r17, 0xFD	; 253
     fac:	2f 4f       	sbci	r18, 0xFF	; 255
     fae:	3f 4f       	sbci	r19, 0xFF	; 255
     fb0:	ba cf       	rjmp	.-140    	; 0xf26 <getMeasurementTimingBudget+0x66>

00000fb2 <initVL53L0X>:
     fb2:	0f 93       	push	r16
     fb4:	1f 93       	push	r17
     fb6:	cf 93       	push	r28
     fb8:	df 93       	push	r29
     fba:	cd b7       	in	r28, 0x3d	; 61
     fbc:	de b7       	in	r29, 0x3e	; 62
     fbe:	2c 97       	sbiw	r28, 0x0c	; 12
     fc0:	0f b6       	in	r0, 0x3f	; 63
     fc2:	f8 94       	cli
     fc4:	de bf       	out	0x3e, r29	; 62
     fc6:	0f be       	out	0x3f, r0	; 63
     fc8:	cd bf       	out	0x3d, r28	; 61
     fca:	e0 91 b3 03 	lds	r30, 0x03B3	; 0x8003b3 <vl53l0xsensor>
     fce:	f0 91 b4 03 	lds	r31, 0x03B4	; 0x8003b4 <vl53l0xsensor+0x1>
     fd2:	92 e5       	ldi	r25, 0x52	; 82
     fd4:	90 83       	st	Z, r25
     fd6:	88 23       	and	r24, r24
     fd8:	41 f0       	breq	.+16     	; 0xfea <initVL53L0X+0x38>
     fda:	89 e8       	ldi	r24, 0x89	; 137
     fdc:	0e 94 2c 03 	call	0x658	; 0x658 <readReg>
     fe0:	68 2f       	mov	r22, r24
     fe2:	61 60       	ori	r22, 0x01	; 1
     fe4:	89 e8       	ldi	r24, 0x89	; 137
     fe6:	0e 94 d1 02 	call	0x5a2	; 0x5a2 <writeReg>
     fea:	60 e0       	ldi	r22, 0x00	; 0
     fec:	88 e8       	ldi	r24, 0x88	; 136
     fee:	0e 94 d1 02 	call	0x5a2	; 0x5a2 <writeReg>
     ff2:	61 e0       	ldi	r22, 0x01	; 1
     ff4:	80 e8       	ldi	r24, 0x80	; 128
     ff6:	0e 94 d1 02 	call	0x5a2	; 0x5a2 <writeReg>
     ffa:	61 e0       	ldi	r22, 0x01	; 1
     ffc:	8f ef       	ldi	r24, 0xFF	; 255
     ffe:	0e 94 d1 02 	call	0x5a2	; 0x5a2 <writeReg>
    1002:	60 e0       	ldi	r22, 0x00	; 0
    1004:	80 e0       	ldi	r24, 0x00	; 0
    1006:	0e 94 d1 02 	call	0x5a2	; 0x5a2 <writeReg>
    100a:	00 91 b3 03 	lds	r16, 0x03B3	; 0x8003b3 <vl53l0xsensor>
    100e:	10 91 b4 03 	lds	r17, 0x03B4	; 0x8003b4 <vl53l0xsensor+0x1>
    1012:	81 e9       	ldi	r24, 0x91	; 145
    1014:	0e 94 2c 03 	call	0x658	; 0x658 <readReg>
    1018:	d8 01       	movw	r26, r16
    101a:	16 96       	adiw	r26, 0x06	; 6
    101c:	8c 93       	st	X, r24
    101e:	61 e0       	ldi	r22, 0x01	; 1
    1020:	80 e0       	ldi	r24, 0x00	; 0
    1022:	0e 94 d1 02 	call	0x5a2	; 0x5a2 <writeReg>
    1026:	60 e0       	ldi	r22, 0x00	; 0
    1028:	8f ef       	ldi	r24, 0xFF	; 255
    102a:	0e 94 d1 02 	call	0x5a2	; 0x5a2 <writeReg>
    102e:	60 e0       	ldi	r22, 0x00	; 0
    1030:	80 e8       	ldi	r24, 0x80	; 128
    1032:	0e 94 d1 02 	call	0x5a2	; 0x5a2 <writeReg>
    1036:	80 e6       	ldi	r24, 0x60	; 96
    1038:	0e 94 2c 03 	call	0x658	; 0x658 <readReg>
    103c:	68 2f       	mov	r22, r24
    103e:	62 61       	ori	r22, 0x12	; 18
    1040:	80 e6       	ldi	r24, 0x60	; 96
    1042:	0e 94 d1 02 	call	0x5a2	; 0x5a2 <writeReg>
    1046:	70 e0       	ldi	r23, 0x00	; 0
    1048:	60 e0       	ldi	r22, 0x00	; 0
    104a:	84 e4       	ldi	r24, 0x44	; 68
    104c:	0e 94 e8 02 	call	0x5d0	; 0x5d0 <writeReg16Bit>
    1050:	6f ef       	ldi	r22, 0xFF	; 255
    1052:	81 e0       	ldi	r24, 0x01	; 1
    1054:	0e 94 d1 02 	call	0x5a2	; 0x5a2 <writeReg>
    1058:	be 01       	movw	r22, r28
    105a:	69 5f       	subi	r22, 0xF9	; 249
    105c:	7f 4f       	sbci	r23, 0xFF	; 255
    105e:	ce 01       	movw	r24, r28
    1060:	08 96       	adiw	r24, 0x08	; 8
    1062:	0e 94 36 04 	call	0x86c	; 0x86c <getSpadInfo>
    1066:	81 11       	cpse	r24, r1
    1068:	0c c0       	rjmp	.+24     	; 0x1082 <initVL53L0X+0xd0>
    106a:	80 e0       	ldi	r24, 0x00	; 0
    106c:	2c 96       	adiw	r28, 0x0c	; 12
    106e:	0f b6       	in	r0, 0x3f	; 63
    1070:	f8 94       	cli
    1072:	de bf       	out	0x3e, r29	; 62
    1074:	0f be       	out	0x3f, r0	; 63
    1076:	cd bf       	out	0x3d, r28	; 61
    1078:	df 91       	pop	r29
    107a:	cf 91       	pop	r28
    107c:	1f 91       	pop	r17
    107e:	0f 91       	pop	r16
    1080:	08 95       	ret
    1082:	46 e0       	ldi	r20, 0x06	; 6
    1084:	be 01       	movw	r22, r28
    1086:	6f 5f       	subi	r22, 0xFF	; 255
    1088:	7f 4f       	sbci	r23, 0xFF	; 255
    108a:	80 eb       	ldi	r24, 0xB0	; 176
    108c:	0e 94 ed 03 	call	0x7da	; 0x7da <readMulti>
    1090:	61 e0       	ldi	r22, 0x01	; 1
    1092:	8f ef       	ldi	r24, 0xFF	; 255
    1094:	0e 94 d1 02 	call	0x5a2	; 0x5a2 <writeReg>
    1098:	60 e0       	ldi	r22, 0x00	; 0
    109a:	8f e4       	ldi	r24, 0x4F	; 79
    109c:	0e 94 d1 02 	call	0x5a2	; 0x5a2 <writeReg>
    10a0:	6c e2       	ldi	r22, 0x2C	; 44
    10a2:	8e e4       	ldi	r24, 0x4E	; 78
    10a4:	0e 94 d1 02 	call	0x5a2	; 0x5a2 <writeReg>
    10a8:	60 e0       	ldi	r22, 0x00	; 0
    10aa:	8f ef       	ldi	r24, 0xFF	; 255
    10ac:	0e 94 d1 02 	call	0x5a2	; 0x5a2 <writeReg>
    10b0:	64 eb       	ldi	r22, 0xB4	; 180
    10b2:	86 eb       	ldi	r24, 0xB6	; 182
    10b4:	0e 94 d1 02 	call	0x5a2	; 0x5a2 <writeReg>
    10b8:	9f 81       	ldd	r25, Y+7	; 0x07
    10ba:	91 11       	cpse	r25, r1
    10bc:	9c e0       	ldi	r25, 0x0C	; 12
    10be:	b8 85       	ldd	r27, Y+8	; 0x08
    10c0:	80 e0       	ldi	r24, 0x00	; 0
    10c2:	a0 e0       	ldi	r26, 0x00	; 0
    10c4:	01 e0       	ldi	r16, 0x01	; 1
    10c6:	10 e0       	ldi	r17, 0x00	; 0
    10c8:	48 2f       	mov	r20, r24
    10ca:	46 95       	lsr	r20
    10cc:	46 95       	lsr	r20
    10ce:	46 95       	lsr	r20
    10d0:	50 e0       	ldi	r21, 0x00	; 0
    10d2:	21 e0       	ldi	r18, 0x01	; 1
    10d4:	30 e0       	ldi	r19, 0x00	; 0
    10d6:	2c 0f       	add	r18, r28
    10d8:	3d 1f       	adc	r19, r29
    10da:	24 0f       	add	r18, r20
    10dc:	35 1f       	adc	r19, r21
    10de:	f9 01       	movw	r30, r18
    10e0:	20 81       	ld	r18, Z
    10e2:	68 2f       	mov	r22, r24
    10e4:	67 70       	andi	r22, 0x07	; 7
    10e6:	89 17       	cp	r24, r25
    10e8:	10 f0       	brcs	.+4      	; 0x10ee <initVL53L0X+0x13c>
    10ea:	ba 13       	cpse	r27, r26
    10ec:	a2 c1       	rjmp	.+836    	; 0x1432 <initVL53L0X+0x480>
    10ee:	e1 e0       	ldi	r30, 0x01	; 1
    10f0:	f0 e0       	ldi	r31, 0x00	; 0
    10f2:	ec 0f       	add	r30, r28
    10f4:	fd 1f       	adc	r31, r29
    10f6:	4e 0f       	add	r20, r30
    10f8:	5f 1f       	adc	r21, r31
    10fa:	f8 01       	movw	r30, r16
    10fc:	02 c0       	rjmp	.+4      	; 0x1102 <initVL53L0X+0x150>
    10fe:	ee 0f       	add	r30, r30
    1100:	ff 1f       	adc	r31, r31
    1102:	6a 95       	dec	r22
    1104:	e2 f7       	brpl	.-8      	; 0x10fe <initVL53L0X+0x14c>
    1106:	bf 01       	movw	r22, r30
    1108:	60 95       	com	r22
    110a:	26 23       	and	r18, r22
    110c:	fa 01       	movw	r30, r20
    110e:	20 83       	st	Z, r18
    1110:	8f 5f       	subi	r24, 0xFF	; 255
    1112:	80 33       	cpi	r24, 0x30	; 48
    1114:	c9 f6       	brne	.-78     	; 0x10c8 <initVL53L0X+0x116>
    1116:	46 e0       	ldi	r20, 0x06	; 6
    1118:	be 01       	movw	r22, r28
    111a:	6f 5f       	subi	r22, 0xFF	; 255
    111c:	7f 4f       	sbci	r23, 0xFF	; 255
    111e:	80 eb       	ldi	r24, 0xB0	; 176
    1120:	0e 94 c7 03 	call	0x78e	; 0x78e <writeMulti>
    1124:	61 e0       	ldi	r22, 0x01	; 1
    1126:	8f ef       	ldi	r24, 0xFF	; 255
    1128:	0e 94 d1 02 	call	0x5a2	; 0x5a2 <writeReg>
    112c:	60 e0       	ldi	r22, 0x00	; 0
    112e:	80 e0       	ldi	r24, 0x00	; 0
    1130:	0e 94 d1 02 	call	0x5a2	; 0x5a2 <writeReg>
    1134:	60 e0       	ldi	r22, 0x00	; 0
    1136:	8f ef       	ldi	r24, 0xFF	; 255
    1138:	0e 94 d1 02 	call	0x5a2	; 0x5a2 <writeReg>
    113c:	60 e0       	ldi	r22, 0x00	; 0
    113e:	89 e0       	ldi	r24, 0x09	; 9
    1140:	0e 94 d1 02 	call	0x5a2	; 0x5a2 <writeReg>
    1144:	60 e0       	ldi	r22, 0x00	; 0
    1146:	80 e1       	ldi	r24, 0x10	; 16
    1148:	0e 94 d1 02 	call	0x5a2	; 0x5a2 <writeReg>
    114c:	60 e0       	ldi	r22, 0x00	; 0
    114e:	81 e1       	ldi	r24, 0x11	; 17
    1150:	0e 94 d1 02 	call	0x5a2	; 0x5a2 <writeReg>
    1154:	61 e0       	ldi	r22, 0x01	; 1
    1156:	84 e2       	ldi	r24, 0x24	; 36
    1158:	0e 94 d1 02 	call	0x5a2	; 0x5a2 <writeReg>
    115c:	6f ef       	ldi	r22, 0xFF	; 255
    115e:	85 e2       	ldi	r24, 0x25	; 37
    1160:	0e 94 d1 02 	call	0x5a2	; 0x5a2 <writeReg>
    1164:	60 e0       	ldi	r22, 0x00	; 0
    1166:	85 e7       	ldi	r24, 0x75	; 117
    1168:	0e 94 d1 02 	call	0x5a2	; 0x5a2 <writeReg>
    116c:	61 e0       	ldi	r22, 0x01	; 1
    116e:	8f ef       	ldi	r24, 0xFF	; 255
    1170:	0e 94 d1 02 	call	0x5a2	; 0x5a2 <writeReg>
    1174:	6c e2       	ldi	r22, 0x2C	; 44
    1176:	8e e4       	ldi	r24, 0x4E	; 78
    1178:	0e 94 d1 02 	call	0x5a2	; 0x5a2 <writeReg>
    117c:	60 e0       	ldi	r22, 0x00	; 0
    117e:	88 e4       	ldi	r24, 0x48	; 72
    1180:	0e 94 d1 02 	call	0x5a2	; 0x5a2 <writeReg>
    1184:	60 e2       	ldi	r22, 0x20	; 32
    1186:	80 e3       	ldi	r24, 0x30	; 48
    1188:	0e 94 d1 02 	call	0x5a2	; 0x5a2 <writeReg>
    118c:	60 e0       	ldi	r22, 0x00	; 0
    118e:	8f ef       	ldi	r24, 0xFF	; 255
    1190:	0e 94 d1 02 	call	0x5a2	; 0x5a2 <writeReg>
    1194:	69 e0       	ldi	r22, 0x09	; 9
    1196:	80 e3       	ldi	r24, 0x30	; 48
    1198:	0e 94 d1 02 	call	0x5a2	; 0x5a2 <writeReg>
    119c:	60 e0       	ldi	r22, 0x00	; 0
    119e:	84 e5       	ldi	r24, 0x54	; 84
    11a0:	0e 94 d1 02 	call	0x5a2	; 0x5a2 <writeReg>
    11a4:	64 e0       	ldi	r22, 0x04	; 4
    11a6:	81 e3       	ldi	r24, 0x31	; 49
    11a8:	0e 94 d1 02 	call	0x5a2	; 0x5a2 <writeReg>
    11ac:	63 e0       	ldi	r22, 0x03	; 3
    11ae:	82 e3       	ldi	r24, 0x32	; 50
    11b0:	0e 94 d1 02 	call	0x5a2	; 0x5a2 <writeReg>
    11b4:	63 e8       	ldi	r22, 0x83	; 131
    11b6:	80 e4       	ldi	r24, 0x40	; 64
    11b8:	0e 94 d1 02 	call	0x5a2	; 0x5a2 <writeReg>
    11bc:	65 e2       	ldi	r22, 0x25	; 37
    11be:	86 e4       	ldi	r24, 0x46	; 70
    11c0:	0e 94 d1 02 	call	0x5a2	; 0x5a2 <writeReg>
    11c4:	60 e0       	ldi	r22, 0x00	; 0
    11c6:	80 e6       	ldi	r24, 0x60	; 96
    11c8:	0e 94 d1 02 	call	0x5a2	; 0x5a2 <writeReg>
    11cc:	60 e0       	ldi	r22, 0x00	; 0
    11ce:	87 e2       	ldi	r24, 0x27	; 39
    11d0:	0e 94 d1 02 	call	0x5a2	; 0x5a2 <writeReg>
    11d4:	66 e0       	ldi	r22, 0x06	; 6
    11d6:	80 e5       	ldi	r24, 0x50	; 80
    11d8:	0e 94 d1 02 	call	0x5a2	; 0x5a2 <writeReg>
    11dc:	60 e0       	ldi	r22, 0x00	; 0
    11de:	81 e5       	ldi	r24, 0x51	; 81
    11e0:	0e 94 d1 02 	call	0x5a2	; 0x5a2 <writeReg>
    11e4:	66 e9       	ldi	r22, 0x96	; 150
    11e6:	82 e5       	ldi	r24, 0x52	; 82
    11e8:	0e 94 d1 02 	call	0x5a2	; 0x5a2 <writeReg>
    11ec:	68 e0       	ldi	r22, 0x08	; 8
    11ee:	86 e5       	ldi	r24, 0x56	; 86
    11f0:	0e 94 d1 02 	call	0x5a2	; 0x5a2 <writeReg>
    11f4:	60 e3       	ldi	r22, 0x30	; 48
    11f6:	87 e5       	ldi	r24, 0x57	; 87
    11f8:	0e 94 d1 02 	call	0x5a2	; 0x5a2 <writeReg>
    11fc:	60 e0       	ldi	r22, 0x00	; 0
    11fe:	81 e6       	ldi	r24, 0x61	; 97
    1200:	0e 94 d1 02 	call	0x5a2	; 0x5a2 <writeReg>
    1204:	60 e0       	ldi	r22, 0x00	; 0
    1206:	82 e6       	ldi	r24, 0x62	; 98
    1208:	0e 94 d1 02 	call	0x5a2	; 0x5a2 <writeReg>
    120c:	60 e0       	ldi	r22, 0x00	; 0
    120e:	84 e6       	ldi	r24, 0x64	; 100
    1210:	0e 94 d1 02 	call	0x5a2	; 0x5a2 <writeReg>
    1214:	60 e0       	ldi	r22, 0x00	; 0
    1216:	85 e6       	ldi	r24, 0x65	; 101
    1218:	0e 94 d1 02 	call	0x5a2	; 0x5a2 <writeReg>
    121c:	60 ea       	ldi	r22, 0xA0	; 160
    121e:	86 e6       	ldi	r24, 0x66	; 102
    1220:	0e 94 d1 02 	call	0x5a2	; 0x5a2 <writeReg>
    1224:	61 e0       	ldi	r22, 0x01	; 1
    1226:	8f ef       	ldi	r24, 0xFF	; 255
    1228:	0e 94 d1 02 	call	0x5a2	; 0x5a2 <writeReg>
    122c:	62 e3       	ldi	r22, 0x32	; 50
    122e:	82 e2       	ldi	r24, 0x22	; 34
    1230:	0e 94 d1 02 	call	0x5a2	; 0x5a2 <writeReg>
    1234:	64 e1       	ldi	r22, 0x14	; 20
    1236:	87 e4       	ldi	r24, 0x47	; 71
    1238:	0e 94 d1 02 	call	0x5a2	; 0x5a2 <writeReg>
    123c:	6f ef       	ldi	r22, 0xFF	; 255
    123e:	89 e4       	ldi	r24, 0x49	; 73
    1240:	0e 94 d1 02 	call	0x5a2	; 0x5a2 <writeReg>
    1244:	60 e0       	ldi	r22, 0x00	; 0
    1246:	8a e4       	ldi	r24, 0x4A	; 74
    1248:	0e 94 d1 02 	call	0x5a2	; 0x5a2 <writeReg>
    124c:	60 e0       	ldi	r22, 0x00	; 0
    124e:	8f ef       	ldi	r24, 0xFF	; 255
    1250:	0e 94 d1 02 	call	0x5a2	; 0x5a2 <writeReg>
    1254:	6a e0       	ldi	r22, 0x0A	; 10
    1256:	8a e7       	ldi	r24, 0x7A	; 122
    1258:	0e 94 d1 02 	call	0x5a2	; 0x5a2 <writeReg>
    125c:	60 e0       	ldi	r22, 0x00	; 0
    125e:	8b e7       	ldi	r24, 0x7B	; 123
    1260:	0e 94 d1 02 	call	0x5a2	; 0x5a2 <writeReg>
    1264:	61 e2       	ldi	r22, 0x21	; 33
    1266:	88 e7       	ldi	r24, 0x78	; 120
    1268:	0e 94 d1 02 	call	0x5a2	; 0x5a2 <writeReg>
    126c:	61 e0       	ldi	r22, 0x01	; 1
    126e:	8f ef       	ldi	r24, 0xFF	; 255
    1270:	0e 94 d1 02 	call	0x5a2	; 0x5a2 <writeReg>
    1274:	64 e3       	ldi	r22, 0x34	; 52
    1276:	83 e2       	ldi	r24, 0x23	; 35
    1278:	0e 94 d1 02 	call	0x5a2	; 0x5a2 <writeReg>
    127c:	60 e0       	ldi	r22, 0x00	; 0
    127e:	82 e4       	ldi	r24, 0x42	; 66
    1280:	0e 94 d1 02 	call	0x5a2	; 0x5a2 <writeReg>
    1284:	6f ef       	ldi	r22, 0xFF	; 255
    1286:	84 e4       	ldi	r24, 0x44	; 68
    1288:	0e 94 d1 02 	call	0x5a2	; 0x5a2 <writeReg>
    128c:	66 e2       	ldi	r22, 0x26	; 38
    128e:	85 e4       	ldi	r24, 0x45	; 69
    1290:	0e 94 d1 02 	call	0x5a2	; 0x5a2 <writeReg>
    1294:	65 e0       	ldi	r22, 0x05	; 5
    1296:	86 e4       	ldi	r24, 0x46	; 70
    1298:	0e 94 d1 02 	call	0x5a2	; 0x5a2 <writeReg>
    129c:	60 e4       	ldi	r22, 0x40	; 64
    129e:	80 e4       	ldi	r24, 0x40	; 64
    12a0:	0e 94 d1 02 	call	0x5a2	; 0x5a2 <writeReg>
    12a4:	66 e0       	ldi	r22, 0x06	; 6
    12a6:	8e e0       	ldi	r24, 0x0E	; 14
    12a8:	0e 94 d1 02 	call	0x5a2	; 0x5a2 <writeReg>
    12ac:	6a e1       	ldi	r22, 0x1A	; 26
    12ae:	80 e2       	ldi	r24, 0x20	; 32
    12b0:	0e 94 d1 02 	call	0x5a2	; 0x5a2 <writeReg>
    12b4:	60 e4       	ldi	r22, 0x40	; 64
    12b6:	83 e4       	ldi	r24, 0x43	; 67
    12b8:	0e 94 d1 02 	call	0x5a2	; 0x5a2 <writeReg>
    12bc:	60 e0       	ldi	r22, 0x00	; 0
    12be:	8f ef       	ldi	r24, 0xFF	; 255
    12c0:	0e 94 d1 02 	call	0x5a2	; 0x5a2 <writeReg>
    12c4:	63 e0       	ldi	r22, 0x03	; 3
    12c6:	84 e3       	ldi	r24, 0x34	; 52
    12c8:	0e 94 d1 02 	call	0x5a2	; 0x5a2 <writeReg>
    12cc:	64 e4       	ldi	r22, 0x44	; 68
    12ce:	85 e3       	ldi	r24, 0x35	; 53
    12d0:	0e 94 d1 02 	call	0x5a2	; 0x5a2 <writeReg>
    12d4:	61 e0       	ldi	r22, 0x01	; 1
    12d6:	8f ef       	ldi	r24, 0xFF	; 255
    12d8:	0e 94 d1 02 	call	0x5a2	; 0x5a2 <writeReg>
    12dc:	64 e0       	ldi	r22, 0x04	; 4
    12de:	81 e3       	ldi	r24, 0x31	; 49
    12e0:	0e 94 d1 02 	call	0x5a2	; 0x5a2 <writeReg>
    12e4:	69 e0       	ldi	r22, 0x09	; 9
    12e6:	8b e4       	ldi	r24, 0x4B	; 75
    12e8:	0e 94 d1 02 	call	0x5a2	; 0x5a2 <writeReg>
    12ec:	65 e0       	ldi	r22, 0x05	; 5
    12ee:	8c e4       	ldi	r24, 0x4C	; 76
    12f0:	0e 94 d1 02 	call	0x5a2	; 0x5a2 <writeReg>
    12f4:	64 e0       	ldi	r22, 0x04	; 4
    12f6:	8d e4       	ldi	r24, 0x4D	; 77
    12f8:	0e 94 d1 02 	call	0x5a2	; 0x5a2 <writeReg>
    12fc:	60 e0       	ldi	r22, 0x00	; 0
    12fe:	8f ef       	ldi	r24, 0xFF	; 255
    1300:	0e 94 d1 02 	call	0x5a2	; 0x5a2 <writeReg>
    1304:	60 e0       	ldi	r22, 0x00	; 0
    1306:	84 e4       	ldi	r24, 0x44	; 68
    1308:	0e 94 d1 02 	call	0x5a2	; 0x5a2 <writeReg>
    130c:	60 e2       	ldi	r22, 0x20	; 32
    130e:	85 e4       	ldi	r24, 0x45	; 69
    1310:	0e 94 d1 02 	call	0x5a2	; 0x5a2 <writeReg>
    1314:	68 e0       	ldi	r22, 0x08	; 8
    1316:	87 e4       	ldi	r24, 0x47	; 71
    1318:	0e 94 d1 02 	call	0x5a2	; 0x5a2 <writeReg>
    131c:	68 e2       	ldi	r22, 0x28	; 40
    131e:	88 e4       	ldi	r24, 0x48	; 72
    1320:	0e 94 d1 02 	call	0x5a2	; 0x5a2 <writeReg>
    1324:	60 e0       	ldi	r22, 0x00	; 0
    1326:	87 e6       	ldi	r24, 0x67	; 103
    1328:	0e 94 d1 02 	call	0x5a2	; 0x5a2 <writeReg>
    132c:	64 e0       	ldi	r22, 0x04	; 4
    132e:	80 e7       	ldi	r24, 0x70	; 112
    1330:	0e 94 d1 02 	call	0x5a2	; 0x5a2 <writeReg>
    1334:	61 e0       	ldi	r22, 0x01	; 1
    1336:	81 e7       	ldi	r24, 0x71	; 113
    1338:	0e 94 d1 02 	call	0x5a2	; 0x5a2 <writeReg>
    133c:	6e ef       	ldi	r22, 0xFE	; 254
    133e:	82 e7       	ldi	r24, 0x72	; 114
    1340:	0e 94 d1 02 	call	0x5a2	; 0x5a2 <writeReg>
    1344:	60 e0       	ldi	r22, 0x00	; 0
    1346:	86 e7       	ldi	r24, 0x76	; 118
    1348:	0e 94 d1 02 	call	0x5a2	; 0x5a2 <writeReg>
    134c:	60 e0       	ldi	r22, 0x00	; 0
    134e:	87 e7       	ldi	r24, 0x77	; 119
    1350:	0e 94 d1 02 	call	0x5a2	; 0x5a2 <writeReg>
    1354:	61 e0       	ldi	r22, 0x01	; 1
    1356:	8f ef       	ldi	r24, 0xFF	; 255
    1358:	0e 94 d1 02 	call	0x5a2	; 0x5a2 <writeReg>
    135c:	61 e0       	ldi	r22, 0x01	; 1
    135e:	8d e0       	ldi	r24, 0x0D	; 13
    1360:	0e 94 d1 02 	call	0x5a2	; 0x5a2 <writeReg>
    1364:	60 e0       	ldi	r22, 0x00	; 0
    1366:	8f ef       	ldi	r24, 0xFF	; 255
    1368:	0e 94 d1 02 	call	0x5a2	; 0x5a2 <writeReg>
    136c:	61 e0       	ldi	r22, 0x01	; 1
    136e:	80 e8       	ldi	r24, 0x80	; 128
    1370:	0e 94 d1 02 	call	0x5a2	; 0x5a2 <writeReg>
    1374:	68 ef       	ldi	r22, 0xF8	; 248
    1376:	81 e0       	ldi	r24, 0x01	; 1
    1378:	0e 94 d1 02 	call	0x5a2	; 0x5a2 <writeReg>
    137c:	61 e0       	ldi	r22, 0x01	; 1
    137e:	8f ef       	ldi	r24, 0xFF	; 255
    1380:	0e 94 d1 02 	call	0x5a2	; 0x5a2 <writeReg>
    1384:	61 e0       	ldi	r22, 0x01	; 1
    1386:	8e e8       	ldi	r24, 0x8E	; 142
    1388:	0e 94 d1 02 	call	0x5a2	; 0x5a2 <writeReg>
    138c:	61 e0       	ldi	r22, 0x01	; 1
    138e:	80 e0       	ldi	r24, 0x00	; 0
    1390:	0e 94 d1 02 	call	0x5a2	; 0x5a2 <writeReg>
    1394:	60 e0       	ldi	r22, 0x00	; 0
    1396:	8f ef       	ldi	r24, 0xFF	; 255
    1398:	0e 94 d1 02 	call	0x5a2	; 0x5a2 <writeReg>
    139c:	60 e0       	ldi	r22, 0x00	; 0
    139e:	80 e8       	ldi	r24, 0x80	; 128
    13a0:	0e 94 d1 02 	call	0x5a2	; 0x5a2 <writeReg>
    13a4:	64 e0       	ldi	r22, 0x04	; 4
    13a6:	8a e0       	ldi	r24, 0x0A	; 10
    13a8:	0e 94 d1 02 	call	0x5a2	; 0x5a2 <writeReg>
    13ac:	84 e8       	ldi	r24, 0x84	; 132
    13ae:	0e 94 2c 03 	call	0x658	; 0x658 <readReg>
    13b2:	68 2f       	mov	r22, r24
    13b4:	6f 7e       	andi	r22, 0xEF	; 239
    13b6:	84 e8       	ldi	r24, 0x84	; 132
    13b8:	0e 94 d1 02 	call	0x5a2	; 0x5a2 <writeReg>
    13bc:	61 e0       	ldi	r22, 0x01	; 1
    13be:	8b e0       	ldi	r24, 0x0B	; 11
    13c0:	0e 94 d1 02 	call	0x5a2	; 0x5a2 <writeReg>
    13c4:	00 91 b3 03 	lds	r16, 0x03B3	; 0x8003b3 <vl53l0xsensor>
    13c8:	10 91 b4 03 	lds	r17, 0x03B4	; 0x8003b4 <vl53l0xsensor+0x1>
    13cc:	0e 94 60 07 	call	0xec0	; 0xec0 <getMeasurementTimingBudget>
    13d0:	d8 01       	movw	r26, r16
    13d2:	17 96       	adiw	r26, 0x07	; 7
    13d4:	6d 93       	st	X+, r22
    13d6:	7d 93       	st	X+, r23
    13d8:	8d 93       	st	X+, r24
    13da:	9c 93       	st	X, r25
    13dc:	1a 97       	sbiw	r26, 0x0a	; 10
    13de:	68 ee       	ldi	r22, 0xE8	; 232
    13e0:	81 e0       	ldi	r24, 0x01	; 1
    13e2:	0e 94 d1 02 	call	0x5a2	; 0x5a2 <writeReg>
    13e6:	e0 91 b3 03 	lds	r30, 0x03B3	; 0x8003b3 <vl53l0xsensor>
    13ea:	f0 91 b4 03 	lds	r31, 0x03B4	; 0x8003b4 <vl53l0xsensor+0x1>
    13ee:	87 81       	ldd	r24, Z+7	; 0x07
    13f0:	90 85       	ldd	r25, Z+8	; 0x08
    13f2:	a1 85       	ldd	r26, Z+9	; 0x09
    13f4:	b2 85       	ldd	r27, Z+10	; 0x0a
    13f6:	bc 01       	movw	r22, r24
    13f8:	cd 01       	movw	r24, r26
    13fa:	0e 94 b5 06 	call	0xd6a	; 0xd6a <setMeasurementTimingBudget>
    13fe:	61 e0       	ldi	r22, 0x01	; 1
    1400:	81 e0       	ldi	r24, 0x01	; 1
    1402:	0e 94 d1 02 	call	0x5a2	; 0x5a2 <writeReg>
    1406:	80 e4       	ldi	r24, 0x40	; 64
    1408:	0e 94 97 05 	call	0xb2e	; 0xb2e <performSingleRefCalibration>
    140c:	88 23       	and	r24, r24
    140e:	09 f4       	brne	.+2      	; 0x1412 <initVL53L0X+0x460>
    1410:	2c ce       	rjmp	.-936    	; 0x106a <initVL53L0X+0xb8>
    1412:	62 e0       	ldi	r22, 0x02	; 2
    1414:	81 e0       	ldi	r24, 0x01	; 1
    1416:	0e 94 d1 02 	call	0x5a2	; 0x5a2 <writeReg>
    141a:	80 e0       	ldi	r24, 0x00	; 0
    141c:	0e 94 97 05 	call	0xb2e	; 0xb2e <performSingleRefCalibration>
    1420:	88 23       	and	r24, r24
    1422:	09 f4       	brne	.+2      	; 0x1426 <initVL53L0X+0x474>
    1424:	22 ce       	rjmp	.-956    	; 0x106a <initVL53L0X+0xb8>
    1426:	68 ee       	ldi	r22, 0xE8	; 232
    1428:	81 e0       	ldi	r24, 0x01	; 1
    142a:	0e 94 d1 02 	call	0x5a2	; 0x5a2 <writeReg>
    142e:	81 e0       	ldi	r24, 0x01	; 1
    1430:	1d ce       	rjmp	.-966    	; 0x106c <initVL53L0X+0xba>
    1432:	30 e0       	ldi	r19, 0x00	; 0
    1434:	02 c0       	rjmp	.+4      	; 0x143a <initVL53L0X+0x488>
    1436:	35 95       	asr	r19
    1438:	27 95       	ror	r18
    143a:	6a 95       	dec	r22
    143c:	e2 f7       	brpl	.-8      	; 0x1436 <initVL53L0X+0x484>
    143e:	20 ff       	sbrs	r18, 0
    1440:	67 ce       	rjmp	.-818    	; 0x1110 <initVL53L0X+0x15e>
    1442:	af 5f       	subi	r26, 0xFF	; 255
    1444:	65 ce       	rjmp	.-822    	; 0x1110 <initVL53L0X+0x15e>

00001446 <setVcselPulsePeriod>:
    1446:	ff 92       	push	r15
    1448:	0f 93       	push	r16
    144a:	1f 93       	push	r17
    144c:	cf 93       	push	r28
    144e:	df 93       	push	r29
    1450:	cd b7       	in	r28, 0x3d	; 61
    1452:	de b7       	in	r29, 0x3e	; 62
    1454:	6f 97       	sbiw	r28, 0x1f	; 31
    1456:	0f b6       	in	r0, 0x3f	; 63
    1458:	f8 94       	cli
    145a:	de bf       	out	0x3e, r29	; 62
    145c:	0f be       	out	0x3f, r0	; 63
    145e:	cd bf       	out	0x3d, r28	; 61
    1460:	08 2f       	mov	r16, r24
    1462:	16 2f       	mov	r17, r22
    1464:	f6 2e       	mov	r15, r22
    1466:	f6 94       	lsr	r15
    1468:	fa 94       	dec	r15
    146a:	ce 01       	movw	r24, r28
    146c:	47 96       	adiw	r24, 0x17	; 23
    146e:	0e 94 0b 06 	call	0xc16	; 0xc16 <getSequenceStepEnables>
    1472:	be 01       	movw	r22, r28
    1474:	6f 5f       	subi	r22, 0xFF	; 255
    1476:	7f 4f       	sbci	r23, 0xFF	; 255
    1478:	ce 01       	movw	r24, r28
    147a:	47 96       	adiw	r24, 0x17	; 23
    147c:	0e 94 64 06 	call	0xcc8	; 0xcc8 <getSequenceStepTimeouts>
    1480:	01 11       	cpse	r16, r1
    1482:	71 c0       	rjmp	.+226    	; 0x1566 <setVcselPulsePeriod+0x120>
    1484:	10 31       	cpi	r17, 0x10	; 16
    1486:	09 f4       	brne	.+2      	; 0x148a <setVcselPulsePeriod+0x44>
    1488:	6c c0       	rjmp	.+216    	; 0x1562 <setVcselPulsePeriod+0x11c>
    148a:	98 f4       	brcc	.+38     	; 0x14b2 <setVcselPulsePeriod+0x6c>
    148c:	1c 30       	cpi	r17, 0x0C	; 12
    148e:	09 f4       	brne	.+2      	; 0x1492 <setVcselPulsePeriod+0x4c>
    1490:	66 c0       	rjmp	.+204    	; 0x155e <setVcselPulsePeriod+0x118>
    1492:	60 e3       	ldi	r22, 0x30	; 48
    1494:	1e 30       	cpi	r17, 0x0E	; 14
    1496:	81 f0       	breq	.+32     	; 0x14b8 <setVcselPulsePeriod+0x72>
    1498:	80 2f       	mov	r24, r16
    149a:	6f 96       	adiw	r28, 0x1f	; 31
    149c:	0f b6       	in	r0, 0x3f	; 63
    149e:	f8 94       	cli
    14a0:	de bf       	out	0x3e, r29	; 62
    14a2:	0f be       	out	0x3f, r0	; 63
    14a4:	cd bf       	out	0x3d, r28	; 61
    14a6:	df 91       	pop	r29
    14a8:	cf 91       	pop	r28
    14aa:	1f 91       	pop	r17
    14ac:	0f 91       	pop	r16
    14ae:	ff 90       	pop	r15
    14b0:	08 95       	ret
    14b2:	60 e5       	ldi	r22, 0x50	; 80
    14b4:	12 31       	cpi	r17, 0x12	; 18
    14b6:	81 f7       	brne	.-32     	; 0x1498 <setVcselPulsePeriod+0x52>
    14b8:	87 e5       	ldi	r24, 0x57	; 87
    14ba:	0e 94 d1 02 	call	0x5a2	; 0x5a2 <writeReg>
    14be:	68 e0       	ldi	r22, 0x08	; 8
    14c0:	86 e5       	ldi	r24, 0x56	; 86
    14c2:	0e 94 d1 02 	call	0x5a2	; 0x5a2 <writeReg>
    14c6:	6f 2d       	mov	r22, r15
    14c8:	80 e5       	ldi	r24, 0x50	; 80
    14ca:	0e 94 d1 02 	call	0x5a2	; 0x5a2 <writeReg>
    14ce:	8f 85       	ldd	r24, Y+15	; 0x0f
    14d0:	98 89       	ldd	r25, Y+16	; 0x10
    14d2:	a9 89       	ldd	r26, Y+17	; 0x11
    14d4:	ba 89       	ldd	r27, Y+18	; 0x12
    14d6:	8c 8f       	std	Y+28, r24	; 0x1c
    14d8:	9d 8f       	std	Y+29, r25	; 0x1d
    14da:	ae 8f       	std	Y+30, r26	; 0x1e
    14dc:	bf 8f       	std	Y+31, r27	; 0x1f
    14de:	41 2f       	mov	r20, r17
    14e0:	bc 01       	movw	r22, r24
    14e2:	cd 01       	movw	r24, r26
    14e4:	0e 94 3a 05 	call	0xa74	; 0xa74 <timeoutMicrosecondsToMclks>
    14e8:	cb 01       	movw	r24, r22
    14ea:	0e 94 ed 05 	call	0xbda	; 0xbda <encodeTimeout>
    14ee:	bc 01       	movw	r22, r24
    14f0:	81 e5       	ldi	r24, 0x51	; 81
    14f2:	0e 94 e8 02 	call	0x5d0	; 0x5d0 <writeReg16Bit>
    14f6:	8b 85       	ldd	r24, Y+11	; 0x0b
    14f8:	9c 85       	ldd	r25, Y+12	; 0x0c
    14fa:	ad 85       	ldd	r26, Y+13	; 0x0d
    14fc:	be 85       	ldd	r27, Y+14	; 0x0e
    14fe:	8c 8f       	std	Y+28, r24	; 0x1c
    1500:	9d 8f       	std	Y+29, r25	; 0x1d
    1502:	ae 8f       	std	Y+30, r26	; 0x1e
    1504:	bf 8f       	std	Y+31, r27	; 0x1f
    1506:	41 2f       	mov	r20, r17
    1508:	bc 01       	movw	r22, r24
    150a:	cd 01       	movw	r24, r26
    150c:	0e 94 3a 05 	call	0xa74	; 0xa74 <timeoutMicrosecondsToMclks>
    1510:	61 30       	cpi	r22, 0x01	; 1
    1512:	91 e0       	ldi	r25, 0x01	; 1
    1514:	79 07       	cpc	r23, r25
    1516:	10 f0       	brcs	.+4      	; 0x151c <setVcselPulsePeriod+0xd6>
    1518:	60 e0       	ldi	r22, 0x00	; 0
    151a:	71 e0       	ldi	r23, 0x01	; 1
    151c:	61 50       	subi	r22, 0x01	; 1
    151e:	86 e4       	ldi	r24, 0x46	; 70
    1520:	0e 94 d1 02 	call	0x5a2	; 0x5a2 <writeReg>
    1524:	e0 91 b3 03 	lds	r30, 0x03B3	; 0x8003b3 <vl53l0xsensor>
    1528:	f0 91 b4 03 	lds	r31, 0x03B4	; 0x8003b4 <vl53l0xsensor+0x1>
    152c:	87 81       	ldd	r24, Z+7	; 0x07
    152e:	90 85       	ldd	r25, Z+8	; 0x08
    1530:	a1 85       	ldd	r26, Z+9	; 0x09
    1532:	b2 85       	ldd	r27, Z+10	; 0x0a
    1534:	bc 01       	movw	r22, r24
    1536:	cd 01       	movw	r24, r26
    1538:	0e 94 b5 06 	call	0xd6a	; 0xd6a <setMeasurementTimingBudget>
    153c:	81 e0       	ldi	r24, 0x01	; 1
    153e:	0e 94 2c 03 	call	0x658	; 0x658 <readReg>
    1542:	18 2f       	mov	r17, r24
    1544:	62 e0       	ldi	r22, 0x02	; 2
    1546:	81 e0       	ldi	r24, 0x01	; 1
    1548:	0e 94 d1 02 	call	0x5a2	; 0x5a2 <writeReg>
    154c:	80 e0       	ldi	r24, 0x00	; 0
    154e:	0e 94 97 05 	call	0xb2e	; 0xb2e <performSingleRefCalibration>
    1552:	61 2f       	mov	r22, r17
    1554:	81 e0       	ldi	r24, 0x01	; 1
    1556:	0e 94 d1 02 	call	0x5a2	; 0x5a2 <writeReg>
    155a:	01 e0       	ldi	r16, 0x01	; 1
    155c:	9d cf       	rjmp	.-198    	; 0x1498 <setVcselPulsePeriod+0x52>
    155e:	68 e1       	ldi	r22, 0x18	; 24
    1560:	ab cf       	rjmp	.-170    	; 0x14b8 <setVcselPulsePeriod+0x72>
    1562:	60 e4       	ldi	r22, 0x40	; 64
    1564:	a9 cf       	rjmp	.-174    	; 0x14b8 <setVcselPulsePeriod+0x72>
    1566:	01 30       	cpi	r16, 0x01	; 1
    1568:	49 f4       	brne	.+18     	; 0x157c <setVcselPulsePeriod+0x136>
    156a:	1c 30       	cpi	r17, 0x0C	; 12
    156c:	09 f4       	brne	.+2      	; 0x1570 <setVcselPulsePeriod+0x12a>
    156e:	6c c0       	rjmp	.+216    	; 0x1648 <setVcselPulsePeriod+0x202>
    1570:	38 f4       	brcc	.+14     	; 0x1580 <setVcselPulsePeriod+0x13a>
    1572:	18 30       	cpi	r17, 0x08	; 8
    1574:	a9 f0       	breq	.+42     	; 0x15a0 <setVcselPulsePeriod+0x15a>
    1576:	1a 30       	cpi	r17, 0x0A	; 10
    1578:	09 f4       	brne	.+2      	; 0x157c <setVcselPulsePeriod+0x136>
    157a:	50 c0       	rjmp	.+160    	; 0x161c <setVcselPulsePeriod+0x1d6>
    157c:	00 e0       	ldi	r16, 0x00	; 0
    157e:	8c cf       	rjmp	.-232    	; 0x1498 <setVcselPulsePeriod+0x52>
    1580:	1e 30       	cpi	r17, 0x0E	; 14
    1582:	e1 f7       	brne	.-8      	; 0x157c <setVcselPulsePeriod+0x136>
    1584:	68 e4       	ldi	r22, 0x48	; 72
    1586:	88 e4       	ldi	r24, 0x48	; 72
    1588:	0e 94 d1 02 	call	0x5a2	; 0x5a2 <writeReg>
    158c:	68 e0       	ldi	r22, 0x08	; 8
    158e:	87 e4       	ldi	r24, 0x47	; 71
    1590:	0e 94 d1 02 	call	0x5a2	; 0x5a2 <writeReg>
    1594:	63 e0       	ldi	r22, 0x03	; 3
    1596:	82 e3       	ldi	r24, 0x32	; 50
    1598:	0e 94 d1 02 	call	0x5a2	; 0x5a2 <writeReg>
    159c:	67 e0       	ldi	r22, 0x07	; 7
    159e:	4b c0       	rjmp	.+150    	; 0x1636 <setVcselPulsePeriod+0x1f0>
    15a0:	60 e1       	ldi	r22, 0x10	; 16
    15a2:	88 e4       	ldi	r24, 0x48	; 72
    15a4:	0e 94 d1 02 	call	0x5a2	; 0x5a2 <writeReg>
    15a8:	68 e0       	ldi	r22, 0x08	; 8
    15aa:	87 e4       	ldi	r24, 0x47	; 71
    15ac:	0e 94 d1 02 	call	0x5a2	; 0x5a2 <writeReg>
    15b0:	62 e0       	ldi	r22, 0x02	; 2
    15b2:	82 e3       	ldi	r24, 0x32	; 50
    15b4:	0e 94 d1 02 	call	0x5a2	; 0x5a2 <writeReg>
    15b8:	6c e0       	ldi	r22, 0x0C	; 12
    15ba:	80 e3       	ldi	r24, 0x30	; 48
    15bc:	0e 94 d1 02 	call	0x5a2	; 0x5a2 <writeReg>
    15c0:	61 e0       	ldi	r22, 0x01	; 1
    15c2:	8f ef       	ldi	r24, 0xFF	; 255
    15c4:	0e 94 d1 02 	call	0x5a2	; 0x5a2 <writeReg>
    15c8:	60 e3       	ldi	r22, 0x30	; 48
    15ca:	80 e3       	ldi	r24, 0x30	; 48
    15cc:	0e 94 d1 02 	call	0x5a2	; 0x5a2 <writeReg>
    15d0:	60 e0       	ldi	r22, 0x00	; 0
    15d2:	8f ef       	ldi	r24, 0xFF	; 255
    15d4:	0e 94 d1 02 	call	0x5a2	; 0x5a2 <writeReg>
    15d8:	6f 2d       	mov	r22, r15
    15da:	80 e7       	ldi	r24, 0x70	; 112
    15dc:	0e 94 d1 02 	call	0x5a2	; 0x5a2 <writeReg>
    15e0:	8b 89       	ldd	r24, Y+19	; 0x13
    15e2:	9c 89       	ldd	r25, Y+20	; 0x14
    15e4:	ad 89       	ldd	r26, Y+21	; 0x15
    15e6:	be 89       	ldd	r27, Y+22	; 0x16
    15e8:	8c 8f       	std	Y+28, r24	; 0x1c
    15ea:	9d 8f       	std	Y+29, r25	; 0x1d
    15ec:	ae 8f       	std	Y+30, r26	; 0x1e
    15ee:	bf 8f       	std	Y+31, r27	; 0x1f
    15f0:	41 2f       	mov	r20, r17
    15f2:	bc 01       	movw	r22, r24
    15f4:	cd 01       	movw	r24, r26
    15f6:	0e 94 3a 05 	call	0xa74	; 0xa74 <timeoutMicrosecondsToMclks>
    15fa:	46 2f       	mov	r20, r22
    15fc:	57 2f       	mov	r21, r23
    15fe:	ca 01       	movw	r24, r20
    1600:	2a 8d       	ldd	r18, Y+26	; 0x1a
    1602:	22 23       	and	r18, r18
    1604:	21 f0       	breq	.+8      	; 0x160e <setVcselPulsePeriod+0x1c8>
    1606:	8f 81       	ldd	r24, Y+7	; 0x07
    1608:	98 85       	ldd	r25, Y+8	; 0x08
    160a:	84 0f       	add	r24, r20
    160c:	95 1f       	adc	r25, r21
    160e:	0e 94 ed 05 	call	0xbda	; 0xbda <encodeTimeout>
    1612:	bc 01       	movw	r22, r24
    1614:	81 e7       	ldi	r24, 0x71	; 113
    1616:	0e 94 e8 02 	call	0x5d0	; 0x5d0 <writeReg16Bit>
    161a:	84 cf       	rjmp	.-248    	; 0x1524 <setVcselPulsePeriod+0xde>
    161c:	68 e2       	ldi	r22, 0x28	; 40
    161e:	88 e4       	ldi	r24, 0x48	; 72
    1620:	0e 94 d1 02 	call	0x5a2	; 0x5a2 <writeReg>
    1624:	68 e0       	ldi	r22, 0x08	; 8
    1626:	87 e4       	ldi	r24, 0x47	; 71
    1628:	0e 94 d1 02 	call	0x5a2	; 0x5a2 <writeReg>
    162c:	63 e0       	ldi	r22, 0x03	; 3
    162e:	82 e3       	ldi	r24, 0x32	; 50
    1630:	0e 94 d1 02 	call	0x5a2	; 0x5a2 <writeReg>
    1634:	69 e0       	ldi	r22, 0x09	; 9
    1636:	80 e3       	ldi	r24, 0x30	; 48
    1638:	0e 94 d1 02 	call	0x5a2	; 0x5a2 <writeReg>
    163c:	61 e0       	ldi	r22, 0x01	; 1
    163e:	8f ef       	ldi	r24, 0xFF	; 255
    1640:	0e 94 d1 02 	call	0x5a2	; 0x5a2 <writeReg>
    1644:	60 e2       	ldi	r22, 0x20	; 32
    1646:	c1 cf       	rjmp	.-126    	; 0x15ca <setVcselPulsePeriod+0x184>
    1648:	68 e3       	ldi	r22, 0x38	; 56
    164a:	88 e4       	ldi	r24, 0x48	; 72
    164c:	0e 94 d1 02 	call	0x5a2	; 0x5a2 <writeReg>
    1650:	68 e0       	ldi	r22, 0x08	; 8
    1652:	87 e4       	ldi	r24, 0x47	; 71
    1654:	0e 94 d1 02 	call	0x5a2	; 0x5a2 <writeReg>
    1658:	63 e0       	ldi	r22, 0x03	; 3
    165a:	82 e3       	ldi	r24, 0x32	; 50
    165c:	0e 94 d1 02 	call	0x5a2	; 0x5a2 <writeReg>
    1660:	68 e0       	ldi	r22, 0x08	; 8
    1662:	e9 cf       	rjmp	.-46     	; 0x1636 <setVcselPulsePeriod+0x1f0>

00001664 <startContinuous>:
    1664:	cf 92       	push	r12
    1666:	df 92       	push	r13
    1668:	ef 92       	push	r14
    166a:	ff 92       	push	r15
    166c:	6b 01       	movw	r12, r22
    166e:	7c 01       	movw	r14, r24
    1670:	61 e0       	ldi	r22, 0x01	; 1
    1672:	80 e8       	ldi	r24, 0x80	; 128
    1674:	0e 94 d1 02 	call	0x5a2	; 0x5a2 <writeReg>
    1678:	61 e0       	ldi	r22, 0x01	; 1
    167a:	8f ef       	ldi	r24, 0xFF	; 255
    167c:	0e 94 d1 02 	call	0x5a2	; 0x5a2 <writeReg>
    1680:	60 e0       	ldi	r22, 0x00	; 0
    1682:	80 e0       	ldi	r24, 0x00	; 0
    1684:	0e 94 d1 02 	call	0x5a2	; 0x5a2 <writeReg>
    1688:	e0 91 b3 03 	lds	r30, 0x03B3	; 0x8003b3 <vl53l0xsensor>
    168c:	f0 91 b4 03 	lds	r31, 0x03B4	; 0x8003b4 <vl53l0xsensor+0x1>
    1690:	66 81       	ldd	r22, Z+6	; 0x06
    1692:	81 e9       	ldi	r24, 0x91	; 145
    1694:	0e 94 d1 02 	call	0x5a2	; 0x5a2 <writeReg>
    1698:	61 e0       	ldi	r22, 0x01	; 1
    169a:	80 e0       	ldi	r24, 0x00	; 0
    169c:	0e 94 d1 02 	call	0x5a2	; 0x5a2 <writeReg>
    16a0:	60 e0       	ldi	r22, 0x00	; 0
    16a2:	8f ef       	ldi	r24, 0xFF	; 255
    16a4:	0e 94 d1 02 	call	0x5a2	; 0x5a2 <writeReg>
    16a8:	60 e0       	ldi	r22, 0x00	; 0
    16aa:	80 e8       	ldi	r24, 0x80	; 128
    16ac:	0e 94 d1 02 	call	0x5a2	; 0x5a2 <writeReg>
    16b0:	62 e0       	ldi	r22, 0x02	; 2
    16b2:	c1 14       	cp	r12, r1
    16b4:	d1 04       	cpc	r13, r1
    16b6:	e1 04       	cpc	r14, r1
    16b8:	f1 04       	cpc	r15, r1
    16ba:	91 f0       	breq	.+36     	; 0x16e0 <startContinuous+0x7c>
    16bc:	88 ef       	ldi	r24, 0xF8	; 248
    16be:	0e 94 4d 03 	call	0x69a	; 0x69a <readReg16Bit>
    16c2:	dc 01       	movw	r26, r24
    16c4:	89 2b       	or	r24, r25
    16c6:	31 f0       	breq	.+12     	; 0x16d4 <startContinuous+0x70>
    16c8:	a7 01       	movw	r20, r14
    16ca:	96 01       	movw	r18, r12
    16cc:	0e 94 44 21 	call	0x4288	; 0x4288 <__muluhisi3>
    16d0:	6b 01       	movw	r12, r22
    16d2:	7c 01       	movw	r14, r24
    16d4:	b7 01       	movw	r22, r14
    16d6:	a6 01       	movw	r20, r12
    16d8:	84 e0       	ldi	r24, 0x04	; 4
    16da:	0e 94 04 03 	call	0x608	; 0x608 <writeReg32Bit>
    16de:	64 e0       	ldi	r22, 0x04	; 4
    16e0:	80 e0       	ldi	r24, 0x00	; 0
    16e2:	ff 90       	pop	r15
    16e4:	ef 90       	pop	r14
    16e6:	df 90       	pop	r13
    16e8:	cf 90       	pop	r12
    16ea:	0c 94 d1 02 	jmp	0x5a2	; 0x5a2 <writeReg>

000016ee <stopContinuous>:
    16ee:	61 e0       	ldi	r22, 0x01	; 1
    16f0:	80 e0       	ldi	r24, 0x00	; 0
    16f2:	0e 94 d1 02 	call	0x5a2	; 0x5a2 <writeReg>
    16f6:	61 e0       	ldi	r22, 0x01	; 1
    16f8:	8f ef       	ldi	r24, 0xFF	; 255
    16fa:	0e 94 d1 02 	call	0x5a2	; 0x5a2 <writeReg>
    16fe:	60 e0       	ldi	r22, 0x00	; 0
    1700:	80 e0       	ldi	r24, 0x00	; 0
    1702:	0e 94 d1 02 	call	0x5a2	; 0x5a2 <writeReg>
    1706:	60 e0       	ldi	r22, 0x00	; 0
    1708:	81 e9       	ldi	r24, 0x91	; 145
    170a:	0e 94 d1 02 	call	0x5a2	; 0x5a2 <writeReg>
    170e:	61 e0       	ldi	r22, 0x01	; 1
    1710:	80 e0       	ldi	r24, 0x00	; 0
    1712:	0e 94 d1 02 	call	0x5a2	; 0x5a2 <writeReg>
    1716:	60 e0       	ldi	r22, 0x00	; 0
    1718:	8f ef       	ldi	r24, 0xFF	; 255
    171a:	0c 94 d1 02 	jmp	0x5a2	; 0x5a2 <writeReg>

0000171e <readRangeContinuousMillimeters>:
    171e:	ef 92       	push	r14
    1720:	ff 92       	push	r15
    1722:	0f 93       	push	r16
    1724:	1f 93       	push	r17
    1726:	cf 93       	push	r28
    1728:	df 93       	push	r29
    172a:	cd b7       	in	r28, 0x3d	; 61
    172c:	de b7       	in	r29, 0x3e	; 62
    172e:	60 97       	sbiw	r28, 0x10	; 16
    1730:	0f b6       	in	r0, 0x3f	; 63
    1732:	f8 94       	cli
    1734:	de bf       	out	0x3e, r29	; 62
    1736:	0f be       	out	0x3f, r0	; 63
    1738:	cd bf       	out	0x3d, r28	; 61
    173a:	7c 01       	movw	r14, r24
    173c:	0e 94 f2 1f 	call	0x3fe4	; 0x3fe4 <hal_millis>
    1740:	e0 91 b3 03 	lds	r30, 0x03B3	; 0x8003b3 <vl53l0xsensor>
    1744:	f0 91 b4 03 	lds	r31, 0x03B4	; 0x8003b4 <vl53l0xsensor+0x1>
    1748:	75 83       	std	Z+5, r23	; 0x05
    174a:	64 83       	std	Z+4, r22	; 0x04
    174c:	83 e1       	ldi	r24, 0x13	; 19
    174e:	0e 94 2c 03 	call	0x658	; 0x658 <readReg>
    1752:	87 70       	andi	r24, 0x07	; 7
    1754:	61 f0       	breq	.+24     	; 0x176e <readRangeContinuousMillimeters+0x50>
    1756:	e1 14       	cp	r14, r1
    1758:	f1 04       	cpc	r15, r1
    175a:	c9 f5       	brne	.+114    	; 0x17ce <readRangeContinuousMillimeters+0xb0>
    175c:	8e e1       	ldi	r24, 0x1E	; 30
    175e:	0e 94 4d 03 	call	0x69a	; 0x69a <readReg16Bit>
    1762:	8c 01       	movw	r16, r24
    1764:	61 e0       	ldi	r22, 0x01	; 1
    1766:	8b e0       	ldi	r24, 0x0B	; 11
    1768:	0e 94 d1 02 	call	0x5a2	; 0x5a2 <writeReg>
    176c:	22 c0       	rjmp	.+68     	; 0x17b2 <readRangeContinuousMillimeters+0x94>
    176e:	e0 91 b3 03 	lds	r30, 0x03B3	; 0x8003b3 <vl53l0xsensor>
    1772:	f0 91 b4 03 	lds	r31, 0x03B4	; 0x8003b4 <vl53l0xsensor+0x1>
    1776:	81 81       	ldd	r24, Z+1	; 0x01
    1778:	92 81       	ldd	r25, Z+2	; 0x02
    177a:	89 2b       	or	r24, r25
    177c:	39 f3       	breq	.-50     	; 0x174c <readRangeContinuousMillimeters+0x2e>
    177e:	0e 94 f2 1f 	call	0x3fe4	; 0x3fe4 <hal_millis>
    1782:	6d 87       	std	Y+13, r22	; 0x0d
    1784:	7e 87       	std	Y+14, r23	; 0x0e
    1786:	8f 87       	std	Y+15, r24	; 0x0f
    1788:	98 8b       	std	Y+16, r25	; 0x10
    178a:	e0 91 b3 03 	lds	r30, 0x03B3	; 0x8003b3 <vl53l0xsensor>
    178e:	f0 91 b4 03 	lds	r31, 0x03B4	; 0x8003b4 <vl53l0xsensor+0x1>
    1792:	84 81       	ldd	r24, Z+4	; 0x04
    1794:	95 81       	ldd	r25, Z+5	; 0x05
    1796:	2d 85       	ldd	r18, Y+13	; 0x0d
    1798:	3e 85       	ldd	r19, Y+14	; 0x0e
    179a:	28 1b       	sub	r18, r24
    179c:	39 0b       	sbc	r19, r25
    179e:	c9 01       	movw	r24, r18
    17a0:	21 81       	ldd	r18, Z+1	; 0x01
    17a2:	32 81       	ldd	r19, Z+2	; 0x02
    17a4:	28 17       	cp	r18, r24
    17a6:	39 07       	cpc	r19, r25
    17a8:	88 f6       	brcc	.-94     	; 0x174c <readRangeContinuousMillimeters+0x2e>
    17aa:	81 e0       	ldi	r24, 0x01	; 1
    17ac:	83 83       	std	Z+3, r24	; 0x03
    17ae:	0f ef       	ldi	r16, 0xFF	; 255
    17b0:	1f ef       	ldi	r17, 0xFF	; 255
    17b2:	c8 01       	movw	r24, r16
    17b4:	60 96       	adiw	r28, 0x10	; 16
    17b6:	0f b6       	in	r0, 0x3f	; 63
    17b8:	f8 94       	cli
    17ba:	de bf       	out	0x3e, r29	; 62
    17bc:	0f be       	out	0x3f, r0	; 63
    17be:	cd bf       	out	0x3d, r28	; 61
    17c0:	df 91       	pop	r29
    17c2:	cf 91       	pop	r28
    17c4:	1f 91       	pop	r17
    17c6:	0f 91       	pop	r16
    17c8:	ff 90       	pop	r15
    17ca:	ef 90       	pop	r14
    17cc:	08 95       	ret
    17ce:	4c e0       	ldi	r20, 0x0C	; 12
    17d0:	be 01       	movw	r22, r28
    17d2:	6f 5f       	subi	r22, 0xFF	; 255
    17d4:	7f 4f       	sbci	r23, 0xFF	; 255
    17d6:	84 e1       	ldi	r24, 0x14	; 20
    17d8:	0e 94 ed 03 	call	0x7da	; 0x7da <readMulti>
    17dc:	89 81       	ldd	r24, Y+1	; 0x01
    17de:	86 95       	lsr	r24
    17e0:	86 95       	lsr	r24
    17e2:	86 95       	lsr	r24
    17e4:	f7 01       	movw	r30, r14
    17e6:	80 87       	std	Z+8, r24	; 0x08
    17e8:	8b 81       	ldd	r24, Y+3	; 0x03
    17ea:	9c 81       	ldd	r25, Y+4	; 0x04
    17ec:	98 27       	eor	r25, r24
    17ee:	89 27       	eor	r24, r25
    17f0:	98 27       	eor	r25, r24
    17f2:	97 83       	std	Z+7, r25	; 0x07
    17f4:	86 83       	std	Z+6, r24	; 0x06
    17f6:	8f 81       	ldd	r24, Y+7	; 0x07
    17f8:	98 85       	ldd	r25, Y+8	; 0x08
    17fa:	98 27       	eor	r25, r24
    17fc:	89 27       	eor	r24, r25
    17fe:	98 27       	eor	r25, r24
    1800:	93 83       	std	Z+3, r25	; 0x03
    1802:	82 83       	std	Z+2, r24	; 0x02
    1804:	89 85       	ldd	r24, Y+9	; 0x09
    1806:	9a 85       	ldd	r25, Y+10	; 0x0a
    1808:	98 27       	eor	r25, r24
    180a:	89 27       	eor	r24, r25
    180c:	98 27       	eor	r25, r24
    180e:	95 83       	std	Z+5, r25	; 0x05
    1810:	84 83       	std	Z+4, r24	; 0x04
    1812:	0b 85       	ldd	r16, Y+11	; 0x0b
    1814:	1c 85       	ldd	r17, Y+12	; 0x0c
    1816:	10 27       	eor	r17, r16
    1818:	01 27       	eor	r16, r17
    181a:	10 27       	eor	r17, r16
    181c:	11 83       	std	Z+1, r17	; 0x01
    181e:	00 83       	st	Z, r16
    1820:	a1 cf       	rjmp	.-190    	; 0x1764 <readRangeContinuousMillimeters+0x46>

00001822 <checkRangeContinousSensor>:
    1822:	cf 93       	push	r28
    1824:	df 93       	push	r29
    1826:	00 d0       	rcall	.+0      	; 0x1828 <checkRangeContinousSensor+0x6>
    1828:	00 d0       	rcall	.+0      	; 0x182a <checkRangeContinousSensor+0x8>
    182a:	cd b7       	in	r28, 0x3d	; 61
    182c:	de b7       	in	r29, 0x3e	; 62
    182e:	e0 91 b3 03 	lds	r30, 0x03B3	; 0x8003b3 <vl53l0xsensor>
    1832:	f0 91 b4 03 	lds	r31, 0x03B4	; 0x8003b4 <vl53l0xsensor+0x1>
    1836:	81 81       	ldd	r24, Z+1	; 0x01
    1838:	92 81       	ldd	r25, Z+2	; 0x02
    183a:	89 2b       	or	r24, r25
    183c:	31 f1       	breq	.+76     	; 0x188a <checkRangeContinousSensor+0x68>
    183e:	0e 94 f2 1f 	call	0x3fe4	; 0x3fe4 <hal_millis>
    1842:	69 83       	std	Y+1, r22	; 0x01
    1844:	7a 83       	std	Y+2, r23	; 0x02
    1846:	8b 83       	std	Y+3, r24	; 0x03
    1848:	9c 83       	std	Y+4, r25	; 0x04
    184a:	e0 91 b3 03 	lds	r30, 0x03B3	; 0x8003b3 <vl53l0xsensor>
    184e:	f0 91 b4 03 	lds	r31, 0x03B4	; 0x8003b4 <vl53l0xsensor+0x1>
    1852:	84 81       	ldd	r24, Z+4	; 0x04
    1854:	95 81       	ldd	r25, Z+5	; 0x05
    1856:	29 81       	ldd	r18, Y+1	; 0x01
    1858:	3a 81       	ldd	r19, Y+2	; 0x02
    185a:	28 1b       	sub	r18, r24
    185c:	39 0b       	sbc	r19, r25
    185e:	c9 01       	movw	r24, r18
    1860:	21 81       	ldd	r18, Z+1	; 0x01
    1862:	32 81       	ldd	r19, Z+2	; 0x02
    1864:	28 17       	cp	r18, r24
    1866:	39 07       	cpc	r19, r25
    1868:	80 f4       	brcc	.+32     	; 0x188a <checkRangeContinousSensor+0x68>
    186a:	81 e0       	ldi	r24, 0x01	; 1
    186c:	83 83       	std	Z+3, r24	; 0x03
    186e:	61 e0       	ldi	r22, 0x01	; 1
    1870:	8b e0       	ldi	r24, 0x0B	; 11
    1872:	0e 94 d1 02 	call	0x5a2	; 0x5a2 <writeReg>
    1876:	0e 94 f2 1f 	call	0x3fe4	; 0x3fe4 <hal_millis>
    187a:	e0 91 b3 03 	lds	r30, 0x03B3	; 0x8003b3 <vl53l0xsensor>
    187e:	f0 91 b4 03 	lds	r31, 0x03B4	; 0x8003b4 <vl53l0xsensor+0x1>
    1882:	75 83       	std	Z+5, r23	; 0x05
    1884:	64 83       	std	Z+4, r22	; 0x04
    1886:	80 e0       	ldi	r24, 0x00	; 0
    1888:	07 c0       	rjmp	.+14     	; 0x1898 <checkRangeContinousSensor+0x76>
    188a:	83 e1       	ldi	r24, 0x13	; 19
    188c:	0e 94 2c 03 	call	0x658	; 0x658 <readReg>
    1890:	98 2f       	mov	r25, r24
    1892:	97 70       	andi	r25, 0x07	; 7
    1894:	81 e0       	ldi	r24, 0x01	; 1
    1896:	b9 f3       	breq	.-18     	; 0x1886 <checkRangeContinousSensor+0x64>
    1898:	0f 90       	pop	r0
    189a:	0f 90       	pop	r0
    189c:	0f 90       	pop	r0
    189e:	0f 90       	pop	r0
    18a0:	df 91       	pop	r29
    18a2:	cf 91       	pop	r28
    18a4:	08 95       	ret

000018a6 <readRangeContinousSensor>:
    18a6:	cf 93       	push	r28
    18a8:	df 93       	push	r29
    18aa:	8e e1       	ldi	r24, 0x1E	; 30
    18ac:	0e 94 4d 03 	call	0x69a	; 0x69a <readReg16Bit>
    18b0:	d8 2f       	mov	r29, r24
    18b2:	c9 2f       	mov	r28, r25
    18b4:	61 e0       	ldi	r22, 0x01	; 1
    18b6:	8b e0       	ldi	r24, 0x0B	; 11
    18b8:	0e 94 d1 02 	call	0x5a2	; 0x5a2 <writeReg>
    18bc:	0e 94 f2 1f 	call	0x3fe4	; 0x3fe4 <hal_millis>
    18c0:	e0 91 b3 03 	lds	r30, 0x03B3	; 0x8003b3 <vl53l0xsensor>
    18c4:	f0 91 b4 03 	lds	r31, 0x03B4	; 0x8003b4 <vl53l0xsensor+0x1>
    18c8:	75 83       	std	Z+5, r23	; 0x05
    18ca:	64 83       	std	Z+4, r22	; 0x04
    18cc:	8d 2f       	mov	r24, r29
    18ce:	9c 2f       	mov	r25, r28
    18d0:	df 91       	pop	r29
    18d2:	cf 91       	pop	r28
    18d4:	08 95       	ret

000018d6 <readRangeSingleMillimeters>:
    18d6:	cf 93       	push	r28
    18d8:	df 93       	push	r29
    18da:	00 d0       	rcall	.+0      	; 0x18dc <readRangeSingleMillimeters+0x6>
    18dc:	00 d0       	rcall	.+0      	; 0x18de <readRangeSingleMillimeters+0x8>
    18de:	00 d0       	rcall	.+0      	; 0x18e0 <readRangeSingleMillimeters+0xa>
    18e0:	cd b7       	in	r28, 0x3d	; 61
    18e2:	de b7       	in	r29, 0x3e	; 62
    18e4:	8e 83       	std	Y+6, r24	; 0x06
    18e6:	9d 83       	std	Y+5, r25	; 0x05
    18e8:	61 e0       	ldi	r22, 0x01	; 1
    18ea:	80 e8       	ldi	r24, 0x80	; 128
    18ec:	0e 94 d1 02 	call	0x5a2	; 0x5a2 <writeReg>
    18f0:	61 e0       	ldi	r22, 0x01	; 1
    18f2:	8f ef       	ldi	r24, 0xFF	; 255
    18f4:	0e 94 d1 02 	call	0x5a2	; 0x5a2 <writeReg>
    18f8:	60 e0       	ldi	r22, 0x00	; 0
    18fa:	80 e0       	ldi	r24, 0x00	; 0
    18fc:	0e 94 d1 02 	call	0x5a2	; 0x5a2 <writeReg>
    1900:	e0 91 b3 03 	lds	r30, 0x03B3	; 0x8003b3 <vl53l0xsensor>
    1904:	f0 91 b4 03 	lds	r31, 0x03B4	; 0x8003b4 <vl53l0xsensor+0x1>
    1908:	66 81       	ldd	r22, Z+6	; 0x06
    190a:	81 e9       	ldi	r24, 0x91	; 145
    190c:	0e 94 d1 02 	call	0x5a2	; 0x5a2 <writeReg>
    1910:	61 e0       	ldi	r22, 0x01	; 1
    1912:	80 e0       	ldi	r24, 0x00	; 0
    1914:	0e 94 d1 02 	call	0x5a2	; 0x5a2 <writeReg>
    1918:	60 e0       	ldi	r22, 0x00	; 0
    191a:	8f ef       	ldi	r24, 0xFF	; 255
    191c:	0e 94 d1 02 	call	0x5a2	; 0x5a2 <writeReg>
    1920:	60 e0       	ldi	r22, 0x00	; 0
    1922:	80 e8       	ldi	r24, 0x80	; 128
    1924:	0e 94 d1 02 	call	0x5a2	; 0x5a2 <writeReg>
    1928:	61 e0       	ldi	r22, 0x01	; 1
    192a:	80 e0       	ldi	r24, 0x00	; 0
    192c:	0e 94 d1 02 	call	0x5a2	; 0x5a2 <writeReg>
    1930:	0e 94 f2 1f 	call	0x3fe4	; 0x3fe4 <hal_millis>
    1934:	e0 91 b3 03 	lds	r30, 0x03B3	; 0x8003b3 <vl53l0xsensor>
    1938:	f0 91 b4 03 	lds	r31, 0x03B4	; 0x8003b4 <vl53l0xsensor+0x1>
    193c:	75 83       	std	Z+5, r23	; 0x05
    193e:	64 83       	std	Z+4, r22	; 0x04
    1940:	80 e0       	ldi	r24, 0x00	; 0
    1942:	0e 94 2c 03 	call	0x658	; 0x658 <readReg>
    1946:	80 fd       	sbrc	r24, 0
    1948:	0c c0       	rjmp	.+24     	; 0x1962 <readRangeSingleMillimeters+0x8c>
    194a:	8e 81       	ldd	r24, Y+6	; 0x06
    194c:	9d 81       	ldd	r25, Y+5	; 0x05
    194e:	26 96       	adiw	r28, 0x06	; 6
    1950:	0f b6       	in	r0, 0x3f	; 63
    1952:	f8 94       	cli
    1954:	de bf       	out	0x3e, r29	; 62
    1956:	0f be       	out	0x3f, r0	; 63
    1958:	cd bf       	out	0x3d, r28	; 61
    195a:	df 91       	pop	r29
    195c:	cf 91       	pop	r28
    195e:	0c 94 8f 0b 	jmp	0x171e	; 0x171e <readRangeContinuousMillimeters>
    1962:	e0 91 b3 03 	lds	r30, 0x03B3	; 0x8003b3 <vl53l0xsensor>
    1966:	f0 91 b4 03 	lds	r31, 0x03B4	; 0x8003b4 <vl53l0xsensor+0x1>
    196a:	81 81       	ldd	r24, Z+1	; 0x01
    196c:	92 81       	ldd	r25, Z+2	; 0x02
    196e:	89 2b       	or	r24, r25
    1970:	39 f3       	breq	.-50     	; 0x1940 <readRangeSingleMillimeters+0x6a>
    1972:	0e 94 f2 1f 	call	0x3fe4	; 0x3fe4 <hal_millis>
    1976:	69 83       	std	Y+1, r22	; 0x01
    1978:	7a 83       	std	Y+2, r23	; 0x02
    197a:	8b 83       	std	Y+3, r24	; 0x03
    197c:	9c 83       	std	Y+4, r25	; 0x04
    197e:	e0 91 b3 03 	lds	r30, 0x03B3	; 0x8003b3 <vl53l0xsensor>
    1982:	f0 91 b4 03 	lds	r31, 0x03B4	; 0x8003b4 <vl53l0xsensor+0x1>
    1986:	84 81       	ldd	r24, Z+4	; 0x04
    1988:	95 81       	ldd	r25, Z+5	; 0x05
    198a:	29 81       	ldd	r18, Y+1	; 0x01
    198c:	3a 81       	ldd	r19, Y+2	; 0x02
    198e:	28 1b       	sub	r18, r24
    1990:	39 0b       	sbc	r19, r25
    1992:	c9 01       	movw	r24, r18
    1994:	21 81       	ldd	r18, Z+1	; 0x01
    1996:	32 81       	ldd	r19, Z+2	; 0x02
    1998:	28 17       	cp	r18, r24
    199a:	39 07       	cpc	r19, r25
    199c:	88 f6       	brcc	.-94     	; 0x1940 <readRangeSingleMillimeters+0x6a>
    199e:	81 e0       	ldi	r24, 0x01	; 1
    19a0:	83 83       	std	Z+3, r24	; 0x03
    19a2:	8f ef       	ldi	r24, 0xFF	; 255
    19a4:	9f ef       	ldi	r25, 0xFF	; 255
    19a6:	26 96       	adiw	r28, 0x06	; 6
    19a8:	0f b6       	in	r0, 0x3f	; 63
    19aa:	f8 94       	cli
    19ac:	de bf       	out	0x3e, r29	; 62
    19ae:	0f be       	out	0x3f, r0	; 63
    19b0:	cd bf       	out	0x3d, r28	; 61
    19b2:	df 91       	pop	r29
    19b4:	cf 91       	pop	r28
    19b6:	08 95       	ret

000019b8 <timeoutOccurred>:
    19b8:	e0 91 b3 03 	lds	r30, 0x03B3	; 0x8003b3 <vl53l0xsensor>
    19bc:	f0 91 b4 03 	lds	r31, 0x03B4	; 0x8003b4 <vl53l0xsensor+0x1>
    19c0:	83 81       	ldd	r24, Z+3	; 0x03
    19c2:	13 82       	std	Z+3, r1	; 0x03
    19c4:	08 95       	ret

000019c6 <setTimeout>:
    19c6:	e0 91 b3 03 	lds	r30, 0x03B3	; 0x8003b3 <vl53l0xsensor>
    19ca:	f0 91 b4 03 	lds	r31, 0x03B4	; 0x8003b4 <vl53l0xsensor+0x1>
    19ce:	92 83       	std	Z+2, r25	; 0x02
    19d0:	81 83       	std	Z+1, r24	; 0x01
    19d2:	08 95       	ret

000019d4 <getTimeout>:
    19d4:	e0 91 b3 03 	lds	r30, 0x03B3	; 0x8003b3 <vl53l0xsensor>
    19d8:	f0 91 b4 03 	lds	r31, 0x03B4	; 0x8003b4 <vl53l0xsensor+0x1>
    19dc:	81 81       	ldd	r24, Z+1	; 0x01
    19de:	92 81       	ldd	r25, Z+2	; 0x02
    19e0:	08 95       	ret

000019e2 <setvl53l0xinstance>:
    19e2:	90 93 b4 03 	sts	0x03B4, r25	; 0x8003b4 <vl53l0xsensor+0x1>
    19e6:	80 93 b3 03 	sts	0x03B3, r24	; 0x8003b3 <vl53l0xsensor>
    19ea:	08 95       	ret

000019ec <ssd1306_width>:
    19ec:	80 91 4c 03 	lds	r24, 0x034C	; 0x80034c <_width>
    19f0:	90 91 4d 03 	lds	r25, 0x034D	; 0x80034d <_width+0x1>
    19f4:	08 95       	ret

000019f6 <ssd1306_height>:
    19f6:	80 91 4a 03 	lds	r24, 0x034A	; 0x80034a <_height>
    19fa:	90 91 4b 03 	lds	r25, 0x034B	; 0x80034b <_height+0x1>
    19fe:	08 95       	ret

00001a00 <set_rotation>:
    1a00:	98 2f       	mov	r25, r24
    1a02:	93 70       	andi	r25, 0x03	; 3
    1a04:	90 93 40 03 	sts	0x0340, r25	; 0x800340 <rotation>
    1a08:	20 91 48 03 	lds	r18, 0x0348	; 0x800348 <WIDTH>
    1a0c:	30 91 49 03 	lds	r19, 0x0349	; 0x800349 <WIDTH+0x1>
    1a10:	40 91 46 03 	lds	r20, 0x0346	; 0x800346 <HEIGHT>
    1a14:	50 91 47 03 	lds	r21, 0x0347	; 0x800347 <HEIGHT+0x1>
    1a18:	80 fd       	sbrc	r24, 0
    1a1a:	09 c0       	rjmp	.+18     	; 0x1a2e <set_rotation+0x2e>
    1a1c:	30 93 4d 03 	sts	0x034D, r19	; 0x80034d <_width+0x1>
    1a20:	20 93 4c 03 	sts	0x034C, r18	; 0x80034c <_width>
    1a24:	50 93 4b 03 	sts	0x034B, r21	; 0x80034b <_height+0x1>
    1a28:	40 93 4a 03 	sts	0x034A, r20	; 0x80034a <_height>
    1a2c:	08 95       	ret
    1a2e:	50 93 4d 03 	sts	0x034D, r21	; 0x80034d <_width+0x1>
    1a32:	40 93 4c 03 	sts	0x034C, r20	; 0x80034c <_width>
    1a36:	30 93 4b 03 	sts	0x034B, r19	; 0x80034b <_height+0x1>
    1a3a:	20 93 4a 03 	sts	0x034A, r18	; 0x80034a <_height>
    1a3e:	08 95       	ret

00001a40 <ssd1306_init_i2c>:
    1a40:	98 e7       	ldi	r25, 0x78	; 120
    1a42:	90 93 4f 03 	sts	0x034F, r25	; 0x80034f <_oledi2caddr>
    1a46:	80 93 01 03 	sts	0x0301, r24	; 0x800301 <_oledsdapin>
    1a4a:	60 93 00 03 	sts	0x0300, r22	; 0x800300 <_oledsclpin>
    1a4e:	08 95       	ret

00001a50 <ssd1306_command>:
    1a50:	cf 93       	push	r28
    1a52:	c8 2f       	mov	r28, r24
    1a54:	40 91 4f 03 	lds	r20, 0x034F	; 0x80034f <_oledi2caddr>
    1a58:	60 91 01 03 	lds	r22, 0x0301	; 0x800301 <_oledsdapin>
    1a5c:	80 91 00 03 	lds	r24, 0x0300	; 0x800300 <_oledsclpin>
    1a60:	0e 94 a3 20 	call	0x4146	; 0x4146 <i2c_Start>
    1a64:	80 e0       	ldi	r24, 0x00	; 0
    1a66:	0e 94 8a 20 	call	0x4114	; 0x4114 <i2c_Write>
    1a6a:	8c 2f       	mov	r24, r28
    1a6c:	0e 94 8a 20 	call	0x4114	; 0x4114 <i2c_Write>
    1a70:	cf 91       	pop	r28
    1a72:	0c 94 ad 20 	jmp	0x415a	; 0x415a <i2c_Stop>

00001a76 <ssd1306_begin>:
    1a76:	cf 93       	push	r28
    1a78:	c8 2f       	mov	r28, r24
    1a7a:	80 93 4e 03 	sts	0x034E, r24	; 0x80034e <_vccstate>
    1a7e:	60 93 4f 03 	sts	0x034F, r22	; 0x80034f <_oledi2caddr>
    1a82:	10 92 45 03 	sts	0x0345, r1	; 0x800345 <cursor_x+0x1>
    1a86:	10 92 44 03 	sts	0x0344, r1	; 0x800344 <cursor_x>
    1a8a:	10 92 43 03 	sts	0x0343, r1	; 0x800343 <cursor_y+0x1>
    1a8e:	10 92 42 03 	sts	0x0342, r1	; 0x800342 <cursor_y>
    1a92:	81 e0       	ldi	r24, 0x01	; 1
    1a94:	80 93 41 03 	sts	0x0341, r24	; 0x800341 <textsize>
    1a98:	2f ef       	ldi	r18, 0xFF	; 255
    1a9a:	3f ef       	ldi	r19, 0xFF	; 255
    1a9c:	30 93 3d 03 	sts	0x033D, r19	; 0x80033d <textbgcolor+0x1>
    1aa0:	20 93 3c 03 	sts	0x033C, r18	; 0x80033c <textbgcolor>
    1aa4:	30 93 3f 03 	sts	0x033F, r19	; 0x80033f <textcolor+0x1>
    1aa8:	20 93 3e 03 	sts	0x033E, r18	; 0x80033e <textcolor>
    1aac:	80 93 b6 03 	sts	0x03B6, r24	; 0x8003b6 <wrap>
    1ab0:	10 92 b5 03 	sts	0x03B5, r1	; 0x8003b5 <_cp437>
    1ab4:	80 e8       	ldi	r24, 0x80	; 128
    1ab6:	90 e0       	ldi	r25, 0x00	; 0
    1ab8:	90 93 49 03 	sts	0x0349, r25	; 0x800349 <WIDTH+0x1>
    1abc:	80 93 48 03 	sts	0x0348, r24	; 0x800348 <WIDTH>
    1ac0:	90 93 4d 03 	sts	0x034D, r25	; 0x80034d <_width+0x1>
    1ac4:	80 93 4c 03 	sts	0x034C, r24	; 0x80034c <_width>
    1ac8:	80 e2       	ldi	r24, 0x20	; 32
    1aca:	90 e0       	ldi	r25, 0x00	; 0
    1acc:	90 93 47 03 	sts	0x0347, r25	; 0x800347 <HEIGHT+0x1>
    1ad0:	80 93 46 03 	sts	0x0346, r24	; 0x800346 <HEIGHT>
    1ad4:	90 93 4b 03 	sts	0x034B, r25	; 0x80034b <_height+0x1>
    1ad8:	80 93 4a 03 	sts	0x034A, r24	; 0x80034a <_height>
    1adc:	82 e0       	ldi	r24, 0x02	; 2
    1ade:	80 93 40 03 	sts	0x0340, r24	; 0x800340 <rotation>
    1ae2:	8e ea       	ldi	r24, 0xAE	; 174
    1ae4:	0e 94 28 0d 	call	0x1a50	; 0x1a50 <ssd1306_command>
    1ae8:	85 ed       	ldi	r24, 0xD5	; 213
    1aea:	0e 94 28 0d 	call	0x1a50	; 0x1a50 <ssd1306_command>
    1aee:	80 e8       	ldi	r24, 0x80	; 128
    1af0:	0e 94 28 0d 	call	0x1a50	; 0x1a50 <ssd1306_command>
    1af4:	88 ea       	ldi	r24, 0xA8	; 168
    1af6:	0e 94 28 0d 	call	0x1a50	; 0x1a50 <ssd1306_command>
    1afa:	8f e1       	ldi	r24, 0x1F	; 31
    1afc:	0e 94 28 0d 	call	0x1a50	; 0x1a50 <ssd1306_command>
    1b00:	83 ed       	ldi	r24, 0xD3	; 211
    1b02:	0e 94 28 0d 	call	0x1a50	; 0x1a50 <ssd1306_command>
    1b06:	80 e0       	ldi	r24, 0x00	; 0
    1b08:	0e 94 28 0d 	call	0x1a50	; 0x1a50 <ssd1306_command>
    1b0c:	80 e4       	ldi	r24, 0x40	; 64
    1b0e:	0e 94 28 0d 	call	0x1a50	; 0x1a50 <ssd1306_command>
    1b12:	8d e8       	ldi	r24, 0x8D	; 141
    1b14:	0e 94 28 0d 	call	0x1a50	; 0x1a50 <ssd1306_command>
    1b18:	80 e1       	ldi	r24, 0x10	; 16
    1b1a:	c1 30       	cpi	r28, 0x01	; 1
    1b1c:	09 f0       	breq	.+2      	; 0x1b20 <ssd1306_begin+0xaa>
    1b1e:	84 e1       	ldi	r24, 0x14	; 20
    1b20:	0e 94 28 0d 	call	0x1a50	; 0x1a50 <ssd1306_command>
    1b24:	80 e2       	ldi	r24, 0x20	; 32
    1b26:	0e 94 28 0d 	call	0x1a50	; 0x1a50 <ssd1306_command>
    1b2a:	80 e0       	ldi	r24, 0x00	; 0
    1b2c:	0e 94 28 0d 	call	0x1a50	; 0x1a50 <ssd1306_command>
    1b30:	81 ea       	ldi	r24, 0xA1	; 161
    1b32:	0e 94 28 0d 	call	0x1a50	; 0x1a50 <ssd1306_command>
    1b36:	88 ec       	ldi	r24, 0xC8	; 200
    1b38:	0e 94 28 0d 	call	0x1a50	; 0x1a50 <ssd1306_command>
    1b3c:	8a ed       	ldi	r24, 0xDA	; 218
    1b3e:	0e 94 28 0d 	call	0x1a50	; 0x1a50 <ssd1306_command>
    1b42:	82 e0       	ldi	r24, 0x02	; 2
    1b44:	0e 94 28 0d 	call	0x1a50	; 0x1a50 <ssd1306_command>
    1b48:	81 e8       	ldi	r24, 0x81	; 129
    1b4a:	0e 94 28 0d 	call	0x1a50	; 0x1a50 <ssd1306_command>
    1b4e:	8f e8       	ldi	r24, 0x8F	; 143
    1b50:	0e 94 28 0d 	call	0x1a50	; 0x1a50 <ssd1306_command>
    1b54:	89 ed       	ldi	r24, 0xD9	; 217
    1b56:	0e 94 28 0d 	call	0x1a50	; 0x1a50 <ssd1306_command>
    1b5a:	82 e2       	ldi	r24, 0x22	; 34
    1b5c:	c1 30       	cpi	r28, 0x01	; 1
    1b5e:	09 f0       	breq	.+2      	; 0x1b62 <ssd1306_begin+0xec>
    1b60:	81 ef       	ldi	r24, 0xF1	; 241
    1b62:	0e 94 28 0d 	call	0x1a50	; 0x1a50 <ssd1306_command>
    1b66:	8b ed       	ldi	r24, 0xDB	; 219
    1b68:	0e 94 28 0d 	call	0x1a50	; 0x1a50 <ssd1306_command>
    1b6c:	80 e4       	ldi	r24, 0x40	; 64
    1b6e:	0e 94 28 0d 	call	0x1a50	; 0x1a50 <ssd1306_command>
    1b72:	84 ea       	ldi	r24, 0xA4	; 164
    1b74:	0e 94 28 0d 	call	0x1a50	; 0x1a50 <ssd1306_command>
    1b78:	86 ea       	ldi	r24, 0xA6	; 166
    1b7a:	0e 94 28 0d 	call	0x1a50	; 0x1a50 <ssd1306_command>
    1b7e:	8f ea       	ldi	r24, 0xAF	; 175
    1b80:	cf 91       	pop	r28
    1b82:	0c 94 28 0d 	jmp	0x1a50	; 0x1a50 <ssd1306_command>

00001b86 <ssd1306_draw_pixel>:
    1b86:	9c 01       	movw	r18, r24
    1b88:	cb 01       	movw	r24, r22
    1b8a:	ba 01       	movw	r22, r20
    1b8c:	37 fd       	sbrc	r19, 7
    1b8e:	88 c0       	rjmp	.+272    	; 0x1ca0 <ssd1306_draw_pixel+0x11a>
    1b90:	40 91 4c 03 	lds	r20, 0x034C	; 0x80034c <_width>
    1b94:	50 91 4d 03 	lds	r21, 0x034D	; 0x80034d <_width+0x1>
    1b98:	24 17       	cp	r18, r20
    1b9a:	35 07       	cpc	r19, r21
    1b9c:	0c f0       	brlt	.+2      	; 0x1ba0 <ssd1306_draw_pixel+0x1a>
    1b9e:	80 c0       	rjmp	.+256    	; 0x1ca0 <ssd1306_draw_pixel+0x11a>
    1ba0:	97 fd       	sbrc	r25, 7
    1ba2:	7e c0       	rjmp	.+252    	; 0x1ca0 <ssd1306_draw_pixel+0x11a>
    1ba4:	40 91 4a 03 	lds	r20, 0x034A	; 0x80034a <_height>
    1ba8:	50 91 4b 03 	lds	r21, 0x034B	; 0x80034b <_height+0x1>
    1bac:	84 17       	cp	r24, r20
    1bae:	95 07       	cpc	r25, r21
    1bb0:	0c f0       	brlt	.+2      	; 0x1bb4 <ssd1306_draw_pixel+0x2e>
    1bb2:	76 c0       	rjmp	.+236    	; 0x1ca0 <ssd1306_draw_pixel+0x11a>
    1bb4:	40 91 40 03 	lds	r20, 0x0340	; 0x800340 <rotation>
    1bb8:	42 30       	cpi	r20, 0x02	; 2
    1bba:	c1 f1       	breq	.+112    	; 0x1c2c <ssd1306_draw_pixel+0xa6>
    1bbc:	43 30       	cpi	r20, 0x03	; 3
    1bbe:	09 f4       	brne	.+2      	; 0x1bc2 <ssd1306_draw_pixel+0x3c>
    1bc0:	49 c0       	rjmp	.+146    	; 0x1c54 <ssd1306_draw_pixel+0xce>
    1bc2:	41 30       	cpi	r20, 0x01	; 1
    1bc4:	51 f4       	brne	.+20     	; 0x1bda <ssd1306_draw_pixel+0x54>
    1bc6:	40 91 48 03 	lds	r20, 0x0348	; 0x800348 <WIDTH>
    1bca:	50 91 49 03 	lds	r21, 0x0349	; 0x800349 <WIDTH+0x1>
    1bce:	48 1b       	sub	r20, r24
    1bd0:	59 0b       	sbc	r21, r25
    1bd2:	c9 01       	movw	r24, r18
    1bd4:	9a 01       	movw	r18, r20
    1bd6:	21 50       	subi	r18, 0x01	; 1
    1bd8:	31 09       	sbc	r19, r1
    1bda:	61 30       	cpi	r22, 0x01	; 1
    1bdc:	71 05       	cpc	r23, r1
    1bde:	09 f4       	brne	.+2      	; 0x1be2 <ssd1306_draw_pixel+0x5c>
    1be0:	43 c0       	rjmp	.+134    	; 0x1c68 <ssd1306_draw_pixel+0xe2>
    1be2:	62 30       	cpi	r22, 0x02	; 2
    1be4:	71 05       	cpc	r23, r1
    1be6:	09 f4       	brne	.+2      	; 0x1bea <ssd1306_draw_pixel+0x64>
    1be8:	5c c0       	rjmp	.+184    	; 0x1ca2 <ssd1306_draw_pixel+0x11c>
    1bea:	67 2b       	or	r22, r23
    1bec:	09 f0       	breq	.+2      	; 0x1bf0 <ssd1306_draw_pixel+0x6a>
    1bee:	58 c0       	rjmp	.+176    	; 0x1ca0 <ssd1306_draw_pixel+0x11a>
    1bf0:	fc 01       	movw	r30, r24
    1bf2:	97 fd       	sbrc	r25, 7
    1bf4:	37 96       	adiw	r30, 0x07	; 7
    1bf6:	63 e0       	ldi	r22, 0x03	; 3
    1bf8:	f5 95       	asr	r31
    1bfa:	e7 95       	ror	r30
    1bfc:	6a 95       	dec	r22
    1bfe:	e1 f7       	brne	.-8      	; 0x1bf8 <ssd1306_draw_pixel+0x72>
    1c00:	f6 95       	lsr	r31
    1c02:	fe 2f       	mov	r31, r30
    1c04:	ee 27       	eor	r30, r30
    1c06:	f7 95       	ror	r31
    1c08:	e7 95       	ror	r30
    1c0a:	e2 0f       	add	r30, r18
    1c0c:	f3 1f       	adc	r31, r19
    1c0e:	e0 50       	subi	r30, 0x00	; 0
    1c10:	ff 4f       	sbci	r31, 0xFF	; 255
    1c12:	9c 01       	movw	r18, r24
    1c14:	27 70       	andi	r18, 0x07	; 7
    1c16:	33 27       	eor	r19, r19
    1c18:	81 e0       	ldi	r24, 0x01	; 1
    1c1a:	90 e0       	ldi	r25, 0x00	; 0
    1c1c:	01 c0       	rjmp	.+2      	; 0x1c20 <ssd1306_draw_pixel+0x9a>
    1c1e:	88 0f       	add	r24, r24
    1c20:	2a 95       	dec	r18
    1c22:	ea f7       	brpl	.-6      	; 0x1c1e <ssd1306_draw_pixel+0x98>
    1c24:	80 95       	com	r24
    1c26:	90 81       	ld	r25, Z
    1c28:	89 23       	and	r24, r25
    1c2a:	39 c0       	rjmp	.+114    	; 0x1c9e <ssd1306_draw_pixel+0x118>
    1c2c:	40 91 48 03 	lds	r20, 0x0348	; 0x800348 <WIDTH>
    1c30:	50 91 49 03 	lds	r21, 0x0349	; 0x800349 <WIDTH+0x1>
    1c34:	fa 01       	movw	r30, r20
    1c36:	e2 1b       	sub	r30, r18
    1c38:	f3 0b       	sbc	r31, r19
    1c3a:	9f 01       	movw	r18, r30
    1c3c:	21 50       	subi	r18, 0x01	; 1
    1c3e:	31 09       	sbc	r19, r1
    1c40:	40 91 46 03 	lds	r20, 0x0346	; 0x800346 <HEIGHT>
    1c44:	50 91 47 03 	lds	r21, 0x0347	; 0x800347 <HEIGHT+0x1>
    1c48:	fa 01       	movw	r30, r20
    1c4a:	e8 1b       	sub	r30, r24
    1c4c:	f9 0b       	sbc	r31, r25
    1c4e:	cf 01       	movw	r24, r30
    1c50:	01 97       	sbiw	r24, 0x01	; 1
    1c52:	c3 cf       	rjmp	.-122    	; 0x1bda <ssd1306_draw_pixel+0x54>
    1c54:	40 91 46 03 	lds	r20, 0x0346	; 0x800346 <HEIGHT>
    1c58:	50 91 47 03 	lds	r21, 0x0347	; 0x800347 <HEIGHT+0x1>
    1c5c:	42 1b       	sub	r20, r18
    1c5e:	53 0b       	sbc	r21, r19
    1c60:	9c 01       	movw	r18, r24
    1c62:	ca 01       	movw	r24, r20
    1c64:	01 97       	sbiw	r24, 0x01	; 1
    1c66:	b9 cf       	rjmp	.-142    	; 0x1bda <ssd1306_draw_pixel+0x54>
    1c68:	fc 01       	movw	r30, r24
    1c6a:	97 fd       	sbrc	r25, 7
    1c6c:	37 96       	adiw	r30, 0x07	; 7
    1c6e:	a3 e0       	ldi	r26, 0x03	; 3
    1c70:	f5 95       	asr	r31
    1c72:	e7 95       	ror	r30
    1c74:	aa 95       	dec	r26
    1c76:	e1 f7       	brne	.-8      	; 0x1c70 <ssd1306_draw_pixel+0xea>
    1c78:	f6 95       	lsr	r31
    1c7a:	fe 2f       	mov	r31, r30
    1c7c:	ee 27       	eor	r30, r30
    1c7e:	f7 95       	ror	r31
    1c80:	e7 95       	ror	r30
    1c82:	e2 0f       	add	r30, r18
    1c84:	f3 1f       	adc	r31, r19
    1c86:	e0 50       	subi	r30, 0x00	; 0
    1c88:	ff 4f       	sbci	r31, 0xFF	; 255
    1c8a:	87 70       	andi	r24, 0x07	; 7
    1c8c:	99 27       	eor	r25, r25
    1c8e:	21 e0       	ldi	r18, 0x01	; 1
    1c90:	30 e0       	ldi	r19, 0x00	; 0
    1c92:	01 c0       	rjmp	.+2      	; 0x1c96 <ssd1306_draw_pixel+0x110>
    1c94:	22 0f       	add	r18, r18
    1c96:	8a 95       	dec	r24
    1c98:	ea f7       	brpl	.-6      	; 0x1c94 <ssd1306_draw_pixel+0x10e>
    1c9a:	80 81       	ld	r24, Z
    1c9c:	82 2b       	or	r24, r18
    1c9e:	80 83       	st	Z, r24
    1ca0:	08 95       	ret
    1ca2:	fc 01       	movw	r30, r24
    1ca4:	97 fd       	sbrc	r25, 7
    1ca6:	37 96       	adiw	r30, 0x07	; 7
    1ca8:	43 e0       	ldi	r20, 0x03	; 3
    1caa:	f5 95       	asr	r31
    1cac:	e7 95       	ror	r30
    1cae:	4a 95       	dec	r20
    1cb0:	e1 f7       	brne	.-8      	; 0x1caa <ssd1306_draw_pixel+0x124>
    1cb2:	f6 95       	lsr	r31
    1cb4:	fe 2f       	mov	r31, r30
    1cb6:	ee 27       	eor	r30, r30
    1cb8:	f7 95       	ror	r31
    1cba:	e7 95       	ror	r30
    1cbc:	e2 0f       	add	r30, r18
    1cbe:	f3 1f       	adc	r31, r19
    1cc0:	e0 50       	subi	r30, 0x00	; 0
    1cc2:	ff 4f       	sbci	r31, 0xFF	; 255
    1cc4:	87 70       	andi	r24, 0x07	; 7
    1cc6:	99 27       	eor	r25, r25
    1cc8:	21 e0       	ldi	r18, 0x01	; 1
    1cca:	30 e0       	ldi	r19, 0x00	; 0
    1ccc:	01 c0       	rjmp	.+2      	; 0x1cd0 <ssd1306_draw_pixel+0x14a>
    1cce:	22 0f       	add	r18, r18
    1cd0:	8a 95       	dec	r24
    1cd2:	ea f7       	brpl	.-6      	; 0x1cce <ssd1306_draw_pixel+0x148>
    1cd4:	80 81       	ld	r24, Z
    1cd6:	82 27       	eor	r24, r18
    1cd8:	e2 cf       	rjmp	.-60     	; 0x1c9e <ssd1306_draw_pixel+0x118>

00001cda <ssd1306_invert_display>:
    1cda:	88 23       	and	r24, r24
    1cdc:	19 f0       	breq	.+6      	; 0x1ce4 <ssd1306_invert_display+0xa>
    1cde:	87 ea       	ldi	r24, 0xA7	; 167
    1ce0:	0c 94 28 0d 	jmp	0x1a50	; 0x1a50 <ssd1306_command>
    1ce4:	86 ea       	ldi	r24, 0xA6	; 166
    1ce6:	fc cf       	rjmp	.-8      	; 0x1ce0 <ssd1306_invert_display+0x6>

00001ce8 <ssd1306_start_scroll_right>:
    1ce8:	cf 93       	push	r28
    1cea:	df 93       	push	r29
    1cec:	d8 2f       	mov	r29, r24
    1cee:	c6 2f       	mov	r28, r22
    1cf0:	86 e2       	ldi	r24, 0x26	; 38
    1cf2:	0e 94 28 0d 	call	0x1a50	; 0x1a50 <ssd1306_command>
    1cf6:	80 e0       	ldi	r24, 0x00	; 0
    1cf8:	0e 94 28 0d 	call	0x1a50	; 0x1a50 <ssd1306_command>
    1cfc:	8d 2f       	mov	r24, r29
    1cfe:	0e 94 28 0d 	call	0x1a50	; 0x1a50 <ssd1306_command>
    1d02:	80 e0       	ldi	r24, 0x00	; 0
    1d04:	0e 94 28 0d 	call	0x1a50	; 0x1a50 <ssd1306_command>
    1d08:	8c 2f       	mov	r24, r28
    1d0a:	0e 94 28 0d 	call	0x1a50	; 0x1a50 <ssd1306_command>
    1d0e:	80 e0       	ldi	r24, 0x00	; 0
    1d10:	0e 94 28 0d 	call	0x1a50	; 0x1a50 <ssd1306_command>
    1d14:	8f ef       	ldi	r24, 0xFF	; 255
    1d16:	0e 94 28 0d 	call	0x1a50	; 0x1a50 <ssd1306_command>
    1d1a:	8f e2       	ldi	r24, 0x2F	; 47
    1d1c:	df 91       	pop	r29
    1d1e:	cf 91       	pop	r28
    1d20:	0c 94 28 0d 	jmp	0x1a50	; 0x1a50 <ssd1306_command>

00001d24 <ssd1306_start_scroll_left>:
    1d24:	cf 93       	push	r28
    1d26:	df 93       	push	r29
    1d28:	d8 2f       	mov	r29, r24
    1d2a:	c6 2f       	mov	r28, r22
    1d2c:	87 e2       	ldi	r24, 0x27	; 39
    1d2e:	0e 94 28 0d 	call	0x1a50	; 0x1a50 <ssd1306_command>
    1d32:	80 e0       	ldi	r24, 0x00	; 0
    1d34:	0e 94 28 0d 	call	0x1a50	; 0x1a50 <ssd1306_command>
    1d38:	8d 2f       	mov	r24, r29
    1d3a:	0e 94 28 0d 	call	0x1a50	; 0x1a50 <ssd1306_command>
    1d3e:	80 e0       	ldi	r24, 0x00	; 0
    1d40:	0e 94 28 0d 	call	0x1a50	; 0x1a50 <ssd1306_command>
    1d44:	8c 2f       	mov	r24, r28
    1d46:	0e 94 28 0d 	call	0x1a50	; 0x1a50 <ssd1306_command>
    1d4a:	80 e0       	ldi	r24, 0x00	; 0
    1d4c:	0e 94 28 0d 	call	0x1a50	; 0x1a50 <ssd1306_command>
    1d50:	8f ef       	ldi	r24, 0xFF	; 255
    1d52:	0e 94 28 0d 	call	0x1a50	; 0x1a50 <ssd1306_command>
    1d56:	8f e2       	ldi	r24, 0x2F	; 47
    1d58:	df 91       	pop	r29
    1d5a:	cf 91       	pop	r28
    1d5c:	0c 94 28 0d 	jmp	0x1a50	; 0x1a50 <ssd1306_command>

00001d60 <ssd1306_start_scroll_diag_right>:
    1d60:	cf 93       	push	r28
    1d62:	df 93       	push	r29
    1d64:	d8 2f       	mov	r29, r24
    1d66:	c6 2f       	mov	r28, r22
    1d68:	83 ea       	ldi	r24, 0xA3	; 163
    1d6a:	0e 94 28 0d 	call	0x1a50	; 0x1a50 <ssd1306_command>
    1d6e:	80 e0       	ldi	r24, 0x00	; 0
    1d70:	0e 94 28 0d 	call	0x1a50	; 0x1a50 <ssd1306_command>
    1d74:	80 e2       	ldi	r24, 0x20	; 32
    1d76:	0e 94 28 0d 	call	0x1a50	; 0x1a50 <ssd1306_command>
    1d7a:	89 e2       	ldi	r24, 0x29	; 41
    1d7c:	0e 94 28 0d 	call	0x1a50	; 0x1a50 <ssd1306_command>
    1d80:	80 e0       	ldi	r24, 0x00	; 0
    1d82:	0e 94 28 0d 	call	0x1a50	; 0x1a50 <ssd1306_command>
    1d86:	8d 2f       	mov	r24, r29
    1d88:	0e 94 28 0d 	call	0x1a50	; 0x1a50 <ssd1306_command>
    1d8c:	80 e0       	ldi	r24, 0x00	; 0
    1d8e:	0e 94 28 0d 	call	0x1a50	; 0x1a50 <ssd1306_command>
    1d92:	8c 2f       	mov	r24, r28
    1d94:	0e 94 28 0d 	call	0x1a50	; 0x1a50 <ssd1306_command>
    1d98:	81 e0       	ldi	r24, 0x01	; 1
    1d9a:	0e 94 28 0d 	call	0x1a50	; 0x1a50 <ssd1306_command>
    1d9e:	8f e2       	ldi	r24, 0x2F	; 47
    1da0:	df 91       	pop	r29
    1da2:	cf 91       	pop	r28
    1da4:	0c 94 28 0d 	jmp	0x1a50	; 0x1a50 <ssd1306_command>

00001da8 <ssd1306_start_scroll_diag_left>:
    1da8:	cf 93       	push	r28
    1daa:	df 93       	push	r29
    1dac:	d8 2f       	mov	r29, r24
    1dae:	c6 2f       	mov	r28, r22
    1db0:	83 ea       	ldi	r24, 0xA3	; 163
    1db2:	0e 94 28 0d 	call	0x1a50	; 0x1a50 <ssd1306_command>
    1db6:	80 e0       	ldi	r24, 0x00	; 0
    1db8:	0e 94 28 0d 	call	0x1a50	; 0x1a50 <ssd1306_command>
    1dbc:	80 e2       	ldi	r24, 0x20	; 32
    1dbe:	0e 94 28 0d 	call	0x1a50	; 0x1a50 <ssd1306_command>
    1dc2:	8a e2       	ldi	r24, 0x2A	; 42
    1dc4:	0e 94 28 0d 	call	0x1a50	; 0x1a50 <ssd1306_command>
    1dc8:	80 e0       	ldi	r24, 0x00	; 0
    1dca:	0e 94 28 0d 	call	0x1a50	; 0x1a50 <ssd1306_command>
    1dce:	8d 2f       	mov	r24, r29
    1dd0:	0e 94 28 0d 	call	0x1a50	; 0x1a50 <ssd1306_command>
    1dd4:	80 e0       	ldi	r24, 0x00	; 0
    1dd6:	0e 94 28 0d 	call	0x1a50	; 0x1a50 <ssd1306_command>
    1dda:	8c 2f       	mov	r24, r28
    1ddc:	0e 94 28 0d 	call	0x1a50	; 0x1a50 <ssd1306_command>
    1de0:	81 e0       	ldi	r24, 0x01	; 1
    1de2:	0e 94 28 0d 	call	0x1a50	; 0x1a50 <ssd1306_command>
    1de6:	8f e2       	ldi	r24, 0x2F	; 47
    1de8:	df 91       	pop	r29
    1dea:	cf 91       	pop	r28
    1dec:	0c 94 28 0d 	jmp	0x1a50	; 0x1a50 <ssd1306_command>

00001df0 <ssd1306_stop_scroll>:
    1df0:	8e e2       	ldi	r24, 0x2E	; 46
    1df2:	0c 94 28 0d 	jmp	0x1a50	; 0x1a50 <ssd1306_command>

00001df6 <ssd1306_dim>:
    1df6:	cf 93       	push	r28
    1df8:	c0 e0       	ldi	r28, 0x00	; 0
    1dfa:	81 11       	cpse	r24, r1
    1dfc:	06 c0       	rjmp	.+12     	; 0x1e0a <ssd1306_dim+0x14>
    1dfe:	80 91 4e 03 	lds	r24, 0x034E	; 0x80034e <_vccstate>
    1e02:	cf ec       	ldi	r28, 0xCF	; 207
    1e04:	81 30       	cpi	r24, 0x01	; 1
    1e06:	09 f4       	brne	.+2      	; 0x1e0a <ssd1306_dim+0x14>
    1e08:	cf e9       	ldi	r28, 0x9F	; 159
    1e0a:	81 e8       	ldi	r24, 0x81	; 129
    1e0c:	0e 94 28 0d 	call	0x1a50	; 0x1a50 <ssd1306_command>
    1e10:	8c 2f       	mov	r24, r28
    1e12:	cf 91       	pop	r28
    1e14:	0c 94 28 0d 	jmp	0x1a50	; 0x1a50 <ssd1306_command>

00001e18 <ssd1306_data>:
    1e18:	cf 93       	push	r28
    1e1a:	c8 2f       	mov	r28, r24
    1e1c:	40 91 4f 03 	lds	r20, 0x034F	; 0x80034f <_oledi2caddr>
    1e20:	60 91 01 03 	lds	r22, 0x0301	; 0x800301 <_oledsdapin>
    1e24:	80 91 00 03 	lds	r24, 0x0300	; 0x800300 <_oledsclpin>
    1e28:	0e 94 a3 20 	call	0x4146	; 0x4146 <i2c_Start>
    1e2c:	80 e4       	ldi	r24, 0x40	; 64
    1e2e:	0e 94 8a 20 	call	0x4114	; 0x4114 <i2c_Write>
    1e32:	8c 2f       	mov	r24, r28
    1e34:	0e 94 8a 20 	call	0x4114	; 0x4114 <i2c_Write>
    1e38:	cf 91       	pop	r28
    1e3a:	0c 94 ad 20 	jmp	0x415a	; 0x415a <i2c_Stop>

00001e3e <ssd1306_display>:
    1e3e:	cf 93       	push	r28
    1e40:	df 93       	push	r29
    1e42:	81 e2       	ldi	r24, 0x21	; 33
    1e44:	0e 94 28 0d 	call	0x1a50	; 0x1a50 <ssd1306_command>
    1e48:	80 e0       	ldi	r24, 0x00	; 0
    1e4a:	0e 94 28 0d 	call	0x1a50	; 0x1a50 <ssd1306_command>
    1e4e:	8f e7       	ldi	r24, 0x7F	; 127
    1e50:	0e 94 28 0d 	call	0x1a50	; 0x1a50 <ssd1306_command>
    1e54:	82 e2       	ldi	r24, 0x22	; 34
    1e56:	0e 94 28 0d 	call	0x1a50	; 0x1a50 <ssd1306_command>
    1e5a:	80 e0       	ldi	r24, 0x00	; 0
    1e5c:	0e 94 28 0d 	call	0x1a50	; 0x1a50 <ssd1306_command>
    1e60:	83 e0       	ldi	r24, 0x03	; 3
    1e62:	0e 94 28 0d 	call	0x1a50	; 0x1a50 <ssd1306_command>
    1e66:	40 91 4f 03 	lds	r20, 0x034F	; 0x80034f <_oledi2caddr>
    1e6a:	60 91 01 03 	lds	r22, 0x0301	; 0x800301 <_oledsdapin>
    1e6e:	80 91 00 03 	lds	r24, 0x0300	; 0x800300 <_oledsclpin>
    1e72:	0e 94 a3 20 	call	0x4146	; 0x4146 <i2c_Start>
    1e76:	80 e4       	ldi	r24, 0x40	; 64
    1e78:	0e 94 8a 20 	call	0x4114	; 0x4114 <i2c_Write>
    1e7c:	80 91 4f 03 	lds	r24, 0x034F	; 0x80034f <_oledi2caddr>
    1e80:	88 0f       	add	r24, r24
    1e82:	0e 94 8a 20 	call	0x4114	; 0x4114 <i2c_Write>
    1e86:	c0 e0       	ldi	r28, 0x00	; 0
    1e88:	d1 e0       	ldi	r29, 0x01	; 1
    1e8a:	89 91       	ld	r24, Y+
    1e8c:	0e 94 8a 20 	call	0x4114	; 0x4114 <i2c_Write>
    1e90:	83 e0       	ldi	r24, 0x03	; 3
    1e92:	c0 30       	cpi	r28, 0x00	; 0
    1e94:	d8 07       	cpc	r29, r24
    1e96:	c9 f7       	brne	.-14     	; 0x1e8a <ssd1306_display+0x4c>
    1e98:	df 91       	pop	r29
    1e9a:	cf 91       	pop	r28
    1e9c:	0c 94 ad 20 	jmp	0x415a	; 0x415a <i2c_Stop>

00001ea0 <ssd1306_clear_display>:
    1ea0:	e0 e0       	ldi	r30, 0x00	; 0
    1ea2:	f1 e0       	ldi	r31, 0x01	; 1
    1ea4:	80 e0       	ldi	r24, 0x00	; 0
    1ea6:	92 e0       	ldi	r25, 0x02	; 2
    1ea8:	df 01       	movw	r26, r30
    1eaa:	9c 01       	movw	r18, r24
    1eac:	1d 92       	st	X+, r1
    1eae:	21 50       	subi	r18, 0x01	; 1
    1eb0:	30 40       	sbci	r19, 0x00	; 0
    1eb2:	e1 f7       	brne	.-8      	; 0x1eac <ssd1306_clear_display+0xc>
    1eb4:	08 95       	ret

00001eb6 <ssd1306_draw_fast_hline_internal>:
    1eb6:	cf 93       	push	r28
    1eb8:	df 93       	push	r29
    1eba:	ec 01       	movw	r28, r24
    1ebc:	db 01       	movw	r26, r22
    1ebe:	ca 01       	movw	r24, r20
    1ec0:	a9 01       	movw	r20, r18
    1ec2:	77 fd       	sbrc	r23, 7
    1ec4:	5a c0       	rjmp	.+180    	; 0x1f7a <ssd1306_draw_fast_hline_internal+0xc4>
    1ec6:	20 91 46 03 	lds	r18, 0x0346	; 0x800346 <HEIGHT>
    1eca:	30 91 47 03 	lds	r19, 0x0347	; 0x800347 <HEIGHT+0x1>
    1ece:	62 17       	cp	r22, r18
    1ed0:	73 07       	cpc	r23, r19
    1ed2:	0c f0       	brlt	.+2      	; 0x1ed6 <ssd1306_draw_fast_hline_internal+0x20>
    1ed4:	52 c0       	rjmp	.+164    	; 0x1f7a <ssd1306_draw_fast_hline_internal+0xc4>
    1ed6:	be 01       	movw	r22, r28
    1ed8:	68 0f       	add	r22, r24
    1eda:	79 1f       	adc	r23, r25
    1edc:	d7 ff       	sbrs	r29, 7
    1ede:	03 c0       	rjmp	.+6      	; 0x1ee6 <ssd1306_draw_fast_hline_internal+0x30>
    1ee0:	cb 01       	movw	r24, r22
    1ee2:	d0 e0       	ldi	r29, 0x00	; 0
    1ee4:	c0 e0       	ldi	r28, 0x00	; 0
    1ee6:	20 91 48 03 	lds	r18, 0x0348	; 0x800348 <WIDTH>
    1eea:	30 91 49 03 	lds	r19, 0x0349	; 0x800349 <WIDTH+0x1>
    1eee:	26 17       	cp	r18, r22
    1ef0:	37 07       	cpc	r19, r23
    1ef2:	1c f4       	brge	.+6      	; 0x1efa <ssd1306_draw_fast_hline_internal+0x44>
    1ef4:	c9 01       	movw	r24, r18
    1ef6:	8c 1b       	sub	r24, r28
    1ef8:	9d 0b       	sbc	r25, r29
    1efa:	18 16       	cp	r1, r24
    1efc:	19 06       	cpc	r1, r25
    1efe:	ec f5       	brge	.+122    	; 0x1f7a <ssd1306_draw_fast_hline_internal+0xc4>
    1f00:	fd 01       	movw	r30, r26
    1f02:	23 e0       	ldi	r18, 0x03	; 3
    1f04:	f5 95       	asr	r31
    1f06:	e7 95       	ror	r30
    1f08:	2a 95       	dec	r18
    1f0a:	e1 f7       	brne	.-8      	; 0x1f04 <ssd1306_draw_fast_hline_internal+0x4e>
    1f0c:	f6 95       	lsr	r31
    1f0e:	fe 2f       	mov	r31, r30
    1f10:	ee 27       	eor	r30, r30
    1f12:	f7 95       	ror	r31
    1f14:	e7 95       	ror	r30
    1f16:	ec 0f       	add	r30, r28
    1f18:	fd 1f       	adc	r31, r29
    1f1a:	e0 50       	subi	r30, 0x00	; 0
    1f1c:	ff 4f       	sbci	r31, 0xFF	; 255
    1f1e:	a7 70       	andi	r26, 0x07	; 7
    1f20:	bb 27       	eor	r27, r27
    1f22:	21 e0       	ldi	r18, 0x01	; 1
    1f24:	30 e0       	ldi	r19, 0x00	; 0
    1f26:	01 c0       	rjmp	.+2      	; 0x1f2a <ssd1306_draw_fast_hline_internal+0x74>
    1f28:	22 0f       	add	r18, r18
    1f2a:	aa 95       	dec	r26
    1f2c:	ea f7       	brpl	.-6      	; 0x1f28 <ssd1306_draw_fast_hline_internal+0x72>
    1f2e:	62 2f       	mov	r22, r18
    1f30:	41 30       	cpi	r20, 0x01	; 1
    1f32:	51 05       	cpc	r21, r1
    1f34:	e1 f0       	breq	.+56     	; 0x1f6e <ssd1306_draw_fast_hline_internal+0xb8>
    1f36:	42 30       	cpi	r20, 0x02	; 2
    1f38:	51 05       	cpc	r21, r1
    1f3a:	71 f0       	breq	.+28     	; 0x1f58 <ssd1306_draw_fast_hline_internal+0xa2>
    1f3c:	45 2b       	or	r20, r21
    1f3e:	e9 f4       	brne	.+58     	; 0x1f7a <ssd1306_draw_fast_hline_internal+0xc4>
    1f40:	20 95       	com	r18
    1f42:	8e 0f       	add	r24, r30
    1f44:	9f 1f       	adc	r25, r31
    1f46:	8e 17       	cp	r24, r30
    1f48:	9f 07       	cpc	r25, r31
    1f4a:	b9 f0       	breq	.+46     	; 0x1f7a <ssd1306_draw_fast_hline_internal+0xc4>
    1f4c:	df 01       	movw	r26, r30
    1f4e:	3d 91       	ld	r19, X+
    1f50:	32 23       	and	r19, r18
    1f52:	30 83       	st	Z, r19
    1f54:	fd 01       	movw	r30, r26
    1f56:	f7 cf       	rjmp	.-18     	; 0x1f46 <ssd1306_draw_fast_hline_internal+0x90>
    1f58:	8e 0f       	add	r24, r30
    1f5a:	9f 1f       	adc	r25, r31
    1f5c:	e8 17       	cp	r30, r24
    1f5e:	f9 07       	cpc	r31, r25
    1f60:	61 f0       	breq	.+24     	; 0x1f7a <ssd1306_draw_fast_hline_internal+0xc4>
    1f62:	df 01       	movw	r26, r30
    1f64:	2d 91       	ld	r18, X+
    1f66:	26 27       	eor	r18, r22
    1f68:	20 83       	st	Z, r18
    1f6a:	fd 01       	movw	r30, r26
    1f6c:	f7 cf       	rjmp	.-18     	; 0x1f5c <ssd1306_draw_fast_hline_internal+0xa6>
    1f6e:	9f 01       	movw	r18, r30
    1f70:	28 0f       	add	r18, r24
    1f72:	39 1f       	adc	r19, r25
    1f74:	e2 17       	cp	r30, r18
    1f76:	f3 07       	cpc	r31, r19
    1f78:	19 f4       	brne	.+6      	; 0x1f80 <ssd1306_draw_fast_hline_internal+0xca>
    1f7a:	df 91       	pop	r29
    1f7c:	cf 91       	pop	r28
    1f7e:	08 95       	ret
    1f80:	df 01       	movw	r26, r30
    1f82:	9d 91       	ld	r25, X+
    1f84:	96 2b       	or	r25, r22
    1f86:	90 83       	st	Z, r25
    1f88:	fd 01       	movw	r30, r26
    1f8a:	f4 cf       	rjmp	.-24     	; 0x1f74 <ssd1306_draw_fast_hline_internal+0xbe>

00001f8c <ssd1306_draw_fast_vline_internal>:
    1f8c:	ff 92       	push	r15
    1f8e:	0f 93       	push	r16
    1f90:	1f 93       	push	r17
    1f92:	cf 93       	push	r28
    1f94:	df 93       	push	r29
    1f96:	ec 01       	movw	r28, r24
    1f98:	db 01       	movw	r26, r22
    1f9a:	ba 01       	movw	r22, r20
    1f9c:	a9 01       	movw	r20, r18
    1f9e:	97 fd       	sbrc	r25, 7
    1fa0:	a6 c0       	rjmp	.+332    	; 0x20ee <ssd1306_draw_fast_vline_internal+0x162>
    1fa2:	80 91 48 03 	lds	r24, 0x0348	; 0x800348 <WIDTH>
    1fa6:	90 91 49 03 	lds	r25, 0x0349	; 0x800349 <WIDTH+0x1>
    1faa:	c8 17       	cp	r28, r24
    1fac:	d9 07       	cpc	r29, r25
    1fae:	0c f0       	brlt	.+2      	; 0x1fb2 <ssd1306_draw_fast_vline_internal+0x26>
    1fb0:	9e c0       	rjmp	.+316    	; 0x20ee <ssd1306_draw_fast_vline_internal+0x162>
    1fb2:	9d 01       	movw	r18, r26
    1fb4:	26 0f       	add	r18, r22
    1fb6:	37 1f       	adc	r19, r23
    1fb8:	b7 ff       	sbrs	r27, 7
    1fba:	03 c0       	rjmp	.+6      	; 0x1fc2 <ssd1306_draw_fast_vline_internal+0x36>
    1fbc:	b9 01       	movw	r22, r18
    1fbe:	b0 e0       	ldi	r27, 0x00	; 0
    1fc0:	a0 e0       	ldi	r26, 0x00	; 0
    1fc2:	80 91 46 03 	lds	r24, 0x0346	; 0x800346 <HEIGHT>
    1fc6:	90 91 47 03 	lds	r25, 0x0347	; 0x800347 <HEIGHT+0x1>
    1fca:	82 17       	cp	r24, r18
    1fcc:	93 07       	cpc	r25, r19
    1fce:	1c f4       	brge	.+6      	; 0x1fd6 <ssd1306_draw_fast_vline_internal+0x4a>
    1fd0:	bc 01       	movw	r22, r24
    1fd2:	6a 1b       	sub	r22, r26
    1fd4:	7b 0b       	sbc	r23, r27
    1fd6:	16 16       	cp	r1, r22
    1fd8:	17 06       	cpc	r1, r23
    1fda:	0c f0       	brlt	.+2      	; 0x1fde <ssd1306_draw_fast_vline_internal+0x52>
    1fdc:	88 c0       	rjmp	.+272    	; 0x20ee <ssd1306_draw_fast_vline_internal+0x162>
    1fde:	86 2f       	mov	r24, r22
    1fe0:	9a 2f       	mov	r25, r26
    1fe2:	96 95       	lsr	r25
    1fe4:	96 95       	lsr	r25
    1fe6:	96 95       	lsr	r25
    1fe8:	20 e8       	ldi	r18, 0x80	; 128
    1fea:	92 9f       	mul	r25, r18
    1fec:	f0 01       	movw	r30, r0
    1fee:	11 24       	eor	r1, r1
    1ff0:	ec 0f       	add	r30, r28
    1ff2:	fd 1f       	adc	r31, r29
    1ff4:	e0 50       	subi	r30, 0x00	; 0
    1ff6:	ff 4f       	sbci	r31, 0xFF	; 255
    1ff8:	3a 2f       	mov	r19, r26
    1ffa:	37 70       	andi	r19, 0x07	; 7
    1ffc:	f3 2e       	mov	r15, r19
    1ffe:	81 f1       	breq	.+96     	; 0x2060 <ssd1306_draw_fast_vline_internal+0xd4>
    2000:	28 e0       	ldi	r18, 0x08	; 8
    2002:	23 1b       	sub	r18, r19
    2004:	c2 2f       	mov	r28, r18
    2006:	d0 e0       	ldi	r29, 0x00	; 0
    2008:	8e 01       	movw	r16, r28
    200a:	05 5f       	subi	r16, 0xF5	; 245
    200c:	1c 4f       	sbci	r17, 0xFC	; 252
    200e:	d8 01       	movw	r26, r16
    2010:	9c 91       	ld	r25, X
    2012:	62 17       	cp	r22, r18
    2014:	08 f0       	brcs	.+2      	; 0x2018 <ssd1306_draw_fast_vline_internal+0x8c>
    2016:	74 c0       	rjmp	.+232    	; 0x2100 <ssd1306_draw_fast_vline_internal+0x174>
    2018:	c6 1b       	sub	r28, r22
    201a:	d1 09       	sbc	r29, r1
    201c:	6f ef       	ldi	r22, 0xFF	; 255
    201e:	70 e0       	ldi	r23, 0x00	; 0
    2020:	02 c0       	rjmp	.+4      	; 0x2026 <ssd1306_draw_fast_vline_internal+0x9a>
    2022:	75 95       	asr	r23
    2024:	67 95       	ror	r22
    2026:	ca 95       	dec	r28
    2028:	e2 f7       	brpl	.-8      	; 0x2022 <ssd1306_draw_fast_vline_internal+0x96>
    202a:	96 23       	and	r25, r22
    202c:	41 30       	cpi	r20, 0x01	; 1
    202e:	51 05       	cpc	r21, r1
    2030:	61 f0       	breq	.+24     	; 0x204a <ssd1306_draw_fast_vline_internal+0xbe>
    2032:	42 30       	cpi	r20, 0x02	; 2
    2034:	51 05       	cpc	r21, r1
    2036:	09 f4       	brne	.+2      	; 0x203a <ssd1306_draw_fast_vline_internal+0xae>
    2038:	45 c0       	rjmp	.+138    	; 0x20c4 <ssd1306_draw_fast_vline_internal+0x138>
    203a:	41 15       	cp	r20, r1
    203c:	51 05       	cpc	r21, r1
    203e:	09 f0       	breq	.+2      	; 0x2042 <ssd1306_draw_fast_vline_internal+0xb6>
    2040:	56 c0       	rjmp	.+172    	; 0x20ee <ssd1306_draw_fast_vline_internal+0x162>
    2042:	90 95       	com	r25
    2044:	30 81       	ld	r19, Z
    2046:	93 23       	and	r25, r19
    2048:	02 c0       	rjmp	.+4      	; 0x204e <ssd1306_draw_fast_vline_internal+0xc2>
    204a:	30 81       	ld	r19, Z
    204c:	93 2b       	or	r25, r19
    204e:	90 83       	st	Z, r25
    2050:	82 17       	cp	r24, r18
    2052:	08 f4       	brcc	.+2      	; 0x2056 <ssd1306_draw_fast_vline_internal+0xca>
    2054:	4c c0       	rjmp	.+152    	; 0x20ee <ssd1306_draw_fast_vline_internal+0x162>
    2056:	a8 ef       	ldi	r26, 0xF8	; 248
    2058:	af 0d       	add	r26, r15
    205a:	8a 0f       	add	r24, r26
    205c:	e0 58       	subi	r30, 0x80	; 128
    205e:	ff 4f       	sbci	r31, 0xFF	; 255
    2060:	88 30       	cpi	r24, 0x08	; 8
    2062:	e8 f0       	brcs	.+58     	; 0x209e <ssd1306_draw_fast_vline_internal+0x112>
    2064:	42 30       	cpi	r20, 0x02	; 2
    2066:	51 05       	cpc	r21, r1
    2068:	81 f5       	brne	.+96     	; 0x20ca <ssd1306_draw_fast_vline_internal+0x13e>
    206a:	df 01       	movw	r26, r30
    206c:	98 2f       	mov	r25, r24
    206e:	2c 91       	ld	r18, X
    2070:	20 95       	com	r18
    2072:	2c 93       	st	X, r18
    2074:	a0 58       	subi	r26, 0x80	; 128
    2076:	bf 4f       	sbci	r27, 0xFF	; 255
    2078:	98 50       	subi	r25, 0x08	; 8
    207a:	98 30       	cpi	r25, 0x08	; 8
    207c:	c0 f7       	brcc	.-16     	; 0x206e <ssd1306_draw_fast_vline_internal+0xe2>
    207e:	28 ef       	ldi	r18, 0xF8	; 248
    2080:	28 0f       	add	r18, r24
    2082:	26 95       	lsr	r18
    2084:	26 95       	lsr	r18
    2086:	26 95       	lsr	r18
    2088:	30 e0       	ldi	r19, 0x00	; 0
    208a:	2f 5f       	subi	r18, 0xFF	; 255
    208c:	3f 4f       	sbci	r19, 0xFF	; 255
    208e:	36 95       	lsr	r19
    2090:	32 2f       	mov	r19, r18
    2092:	22 27       	eor	r18, r18
    2094:	37 95       	ror	r19
    2096:	27 95       	ror	r18
    2098:	e2 0f       	add	r30, r18
    209a:	f3 1f       	adc	r31, r19
    209c:	87 70       	andi	r24, 0x07	; 7
    209e:	88 23       	and	r24, r24
    20a0:	31 f1       	breq	.+76     	; 0x20ee <ssd1306_draw_fast_vline_internal+0x162>
    20a2:	a8 2f       	mov	r26, r24
    20a4:	b0 e0       	ldi	r27, 0x00	; 0
    20a6:	ad 5f       	subi	r26, 0xFD	; 253
    20a8:	bc 4f       	sbci	r27, 0xFC	; 252
    20aa:	8c 91       	ld	r24, X
    20ac:	41 30       	cpi	r20, 0x01	; 1
    20ae:	51 05       	cpc	r21, r1
    20b0:	d9 f0       	breq	.+54     	; 0x20e8 <ssd1306_draw_fast_vline_internal+0x15c>
    20b2:	42 30       	cpi	r20, 0x02	; 2
    20b4:	51 05       	cpc	r21, r1
    20b6:	09 f1       	breq	.+66     	; 0x20fa <ssd1306_draw_fast_vline_internal+0x16e>
    20b8:	45 2b       	or	r20, r21
    20ba:	c9 f4       	brne	.+50     	; 0x20ee <ssd1306_draw_fast_vline_internal+0x162>
    20bc:	80 95       	com	r24
    20be:	90 81       	ld	r25, Z
    20c0:	89 23       	and	r24, r25
    20c2:	14 c0       	rjmp	.+40     	; 0x20ec <ssd1306_draw_fast_vline_internal+0x160>
    20c4:	30 81       	ld	r19, Z
    20c6:	93 27       	eor	r25, r19
    20c8:	c2 cf       	rjmp	.-124    	; 0x204e <ssd1306_draw_fast_vline_internal+0xc2>
    20ca:	91 e0       	ldi	r25, 0x01	; 1
    20cc:	41 30       	cpi	r20, 0x01	; 1
    20ce:	51 05       	cpc	r21, r1
    20d0:	09 f0       	breq	.+2      	; 0x20d4 <ssd1306_draw_fast_vline_internal+0x148>
    20d2:	90 e0       	ldi	r25, 0x00	; 0
    20d4:	91 95       	neg	r25
    20d6:	df 01       	movw	r26, r30
    20d8:	28 2f       	mov	r18, r24
    20da:	9c 93       	st	X, r25
    20dc:	a0 58       	subi	r26, 0x80	; 128
    20de:	bf 4f       	sbci	r27, 0xFF	; 255
    20e0:	28 50       	subi	r18, 0x08	; 8
    20e2:	28 30       	cpi	r18, 0x08	; 8
    20e4:	d0 f7       	brcc	.-12     	; 0x20da <ssd1306_draw_fast_vline_internal+0x14e>
    20e6:	cb cf       	rjmp	.-106    	; 0x207e <ssd1306_draw_fast_vline_internal+0xf2>
    20e8:	90 81       	ld	r25, Z
    20ea:	89 2b       	or	r24, r25
    20ec:	80 83       	st	Z, r24
    20ee:	df 91       	pop	r29
    20f0:	cf 91       	pop	r28
    20f2:	1f 91       	pop	r17
    20f4:	0f 91       	pop	r16
    20f6:	ff 90       	pop	r15
    20f8:	08 95       	ret
    20fa:	90 81       	ld	r25, Z
    20fc:	89 27       	eor	r24, r25
    20fe:	f6 cf       	rjmp	.-20     	; 0x20ec <ssd1306_draw_fast_vline_internal+0x160>
    2100:	41 30       	cpi	r20, 0x01	; 1
    2102:	51 05       	cpc	r21, r1
    2104:	09 f4       	brne	.+2      	; 0x2108 <ssd1306_draw_fast_vline_internal+0x17c>
    2106:	a1 cf       	rjmp	.-190    	; 0x204a <ssd1306_draw_fast_vline_internal+0xbe>
    2108:	42 30       	cpi	r20, 0x02	; 2
    210a:	51 05       	cpc	r21, r1
    210c:	d9 f2       	breq	.-74     	; 0x20c4 <ssd1306_draw_fast_vline_internal+0x138>
    210e:	41 15       	cp	r20, r1
    2110:	51 05       	cpc	r21, r1
    2112:	09 f0       	breq	.+2      	; 0x2116 <ssd1306_draw_fast_vline_internal+0x18a>
    2114:	a0 cf       	rjmp	.-192    	; 0x2056 <ssd1306_draw_fast_vline_internal+0xca>
    2116:	95 cf       	rjmp	.-214    	; 0x2042 <ssd1306_draw_fast_vline_internal+0xb6>

00002118 <ssd1306_draw_fast_hline>:
    2118:	dc 01       	movw	r26, r24
    211a:	fb 01       	movw	r30, r22
    211c:	80 91 40 03 	lds	r24, 0x0340	; 0x800340 <rotation>
    2120:	82 30       	cpi	r24, 0x02	; 2
    2122:	81 f0       	breq	.+32     	; 0x2144 <ssd1306_draw_fast_hline+0x2c>
    2124:	83 30       	cpi	r24, 0x03	; 3
    2126:	21 f1       	breq	.+72     	; 0x2170 <ssd1306_draw_fast_hline+0x58>
    2128:	81 30       	cpi	r24, 0x01	; 1
    212a:	f1 f4       	brne	.+60     	; 0x2168 <ssd1306_draw_fast_hline+0x50>
    212c:	80 91 48 03 	lds	r24, 0x0348	; 0x800348 <WIDTH>
    2130:	90 91 49 03 	lds	r25, 0x0349	; 0x800349 <WIDTH+0x1>
    2134:	86 1b       	sub	r24, r22
    2136:	97 0b       	sbc	r25, r23
    2138:	fc 01       	movw	r30, r24
    213a:	31 97       	sbiw	r30, 0x01	; 1
    213c:	bd 01       	movw	r22, r26
    213e:	cf 01       	movw	r24, r30
    2140:	0c 94 c6 0f 	jmp	0x1f8c	; 0x1f8c <ssd1306_draw_fast_vline_internal>
    2144:	80 91 48 03 	lds	r24, 0x0348	; 0x800348 <WIDTH>
    2148:	90 91 49 03 	lds	r25, 0x0349	; 0x800349 <WIDTH+0x1>
    214c:	bc 01       	movw	r22, r24
    214e:	6a 1b       	sub	r22, r26
    2150:	7b 0b       	sbc	r23, r27
    2152:	db 01       	movw	r26, r22
    2154:	80 91 46 03 	lds	r24, 0x0346	; 0x800346 <HEIGHT>
    2158:	90 91 47 03 	lds	r25, 0x0347	; 0x800347 <HEIGHT+0x1>
    215c:	8e 1b       	sub	r24, r30
    215e:	9f 0b       	sbc	r25, r31
    2160:	fc 01       	movw	r30, r24
    2162:	31 97       	sbiw	r30, 0x01	; 1
    2164:	a4 1b       	sub	r26, r20
    2166:	b5 0b       	sbc	r27, r21
    2168:	bf 01       	movw	r22, r30
    216a:	cd 01       	movw	r24, r26
    216c:	0c 94 5b 0f 	jmp	0x1eb6	; 0x1eb6 <ssd1306_draw_fast_hline_internal>
    2170:	80 91 46 03 	lds	r24, 0x0346	; 0x800346 <HEIGHT>
    2174:	90 91 47 03 	lds	r25, 0x0347	; 0x800347 <HEIGHT+0x1>
    2178:	8a 1b       	sub	r24, r26
    217a:	9b 0b       	sbc	r25, r27
    217c:	dc 01       	movw	r26, r24
    217e:	a4 1b       	sub	r26, r20
    2180:	b5 0b       	sbc	r27, r21
    2182:	dc cf       	rjmp	.-72     	; 0x213c <ssd1306_draw_fast_hline+0x24>

00002184 <ssd1306_draw_fast_vline>:
    2184:	dc 01       	movw	r26, r24
    2186:	fb 01       	movw	r30, r22
    2188:	80 91 40 03 	lds	r24, 0x0340	; 0x800340 <rotation>
    218c:	82 30       	cpi	r24, 0x02	; 2
    218e:	89 f0       	breq	.+34     	; 0x21b2 <ssd1306_draw_fast_vline+0x2e>
    2190:	83 30       	cpi	r24, 0x03	; 3
    2192:	21 f1       	breq	.+72     	; 0x21dc <ssd1306_draw_fast_vline+0x58>
    2194:	81 30       	cpi	r24, 0x01	; 1
    2196:	f1 f4       	brne	.+60     	; 0x21d4 <ssd1306_draw_fast_vline+0x50>
    2198:	80 91 48 03 	lds	r24, 0x0348	; 0x800348 <WIDTH>
    219c:	90 91 49 03 	lds	r25, 0x0349	; 0x800349 <WIDTH+0x1>
    21a0:	86 1b       	sub	r24, r22
    21a2:	97 0b       	sbc	r25, r23
    21a4:	fc 01       	movw	r30, r24
    21a6:	e4 1b       	sub	r30, r20
    21a8:	f5 0b       	sbc	r31, r21
    21aa:	bd 01       	movw	r22, r26
    21ac:	cf 01       	movw	r24, r30
    21ae:	0c 94 5b 0f 	jmp	0x1eb6	; 0x1eb6 <ssd1306_draw_fast_hline_internal>
    21b2:	80 91 48 03 	lds	r24, 0x0348	; 0x800348 <WIDTH>
    21b6:	90 91 49 03 	lds	r25, 0x0349	; 0x800349 <WIDTH+0x1>
    21ba:	8a 1b       	sub	r24, r26
    21bc:	9b 0b       	sbc	r25, r27
    21be:	dc 01       	movw	r26, r24
    21c0:	11 97       	sbiw	r26, 0x01	; 1
    21c2:	80 91 46 03 	lds	r24, 0x0346	; 0x800346 <HEIGHT>
    21c6:	90 91 47 03 	lds	r25, 0x0347	; 0x800347 <HEIGHT+0x1>
    21ca:	86 1b       	sub	r24, r22
    21cc:	97 0b       	sbc	r25, r23
    21ce:	fc 01       	movw	r30, r24
    21d0:	e4 1b       	sub	r30, r20
    21d2:	f5 0b       	sbc	r31, r21
    21d4:	bf 01       	movw	r22, r30
    21d6:	cd 01       	movw	r24, r26
    21d8:	0c 94 c6 0f 	jmp	0x1f8c	; 0x1f8c <ssd1306_draw_fast_vline_internal>
    21dc:	80 91 46 03 	lds	r24, 0x0346	; 0x800346 <HEIGHT>
    21e0:	90 91 47 03 	lds	r25, 0x0347	; 0x800347 <HEIGHT+0x1>
    21e4:	8a 1b       	sub	r24, r26
    21e6:	9b 0b       	sbc	r25, r27
    21e8:	dc 01       	movw	r26, r24
    21ea:	11 97       	sbiw	r26, 0x01	; 1
    21ec:	de cf       	rjmp	.-68     	; 0x21aa <ssd1306_draw_fast_vline+0x26>

000021ee <ssd1306_draw_circle>:
    21ee:	2f 92       	push	r2
    21f0:	3f 92       	push	r3
    21f2:	4f 92       	push	r4
    21f4:	5f 92       	push	r5
    21f6:	6f 92       	push	r6
    21f8:	7f 92       	push	r7
    21fa:	8f 92       	push	r8
    21fc:	9f 92       	push	r9
    21fe:	af 92       	push	r10
    2200:	bf 92       	push	r11
    2202:	cf 92       	push	r12
    2204:	df 92       	push	r13
    2206:	ef 92       	push	r14
    2208:	ff 92       	push	r15
    220a:	0f 93       	push	r16
    220c:	1f 93       	push	r17
    220e:	cf 93       	push	r28
    2210:	df 93       	push	r29
    2212:	00 d0       	rcall	.+0      	; 0x2214 <ssd1306_draw_circle+0x26>
    2214:	00 d0       	rcall	.+0      	; 0x2216 <ssd1306_draw_circle+0x28>
    2216:	cd b7       	in	r28, 0x3d	; 61
    2218:	de b7       	in	r29, 0x3e	; 62
    221a:	8c 01       	movw	r16, r24
    221c:	7b 01       	movw	r14, r22
    221e:	4b 83       	std	Y+3, r20	; 0x03
    2220:	5c 83       	std	Y+4, r21	; 0x04
    2222:	52 2e       	mov	r5, r18
    2224:	43 2e       	mov	r4, r19
    2226:	81 e0       	ldi	r24, 0x01	; 1
    2228:	90 e0       	ldi	r25, 0x00	; 0
    222a:	5c 01       	movw	r10, r24
    222c:	2b 81       	ldd	r18, Y+3	; 0x03
    222e:	3c 81       	ldd	r19, Y+4	; 0x04
    2230:	a2 1a       	sub	r10, r18
    2232:	b3 0a       	sbc	r11, r19
    2234:	c9 01       	movw	r24, r18
    2236:	91 95       	neg	r25
    2238:	81 95       	neg	r24
    223a:	91 09       	sbc	r25, r1
    223c:	9c 01       	movw	r18, r24
    223e:	22 0f       	add	r18, r18
    2240:	33 1f       	adc	r19, r19
    2242:	3a 83       	std	Y+2, r19	; 0x02
    2244:	29 83       	std	Y+1, r18	; 0x01
    2246:	6b 81       	ldd	r22, Y+3	; 0x03
    2248:	7c 81       	ldd	r23, Y+4	; 0x04
    224a:	6e 0d       	add	r22, r14
    224c:	7f 1d       	adc	r23, r15
    224e:	45 2d       	mov	r20, r5
    2250:	54 2d       	mov	r21, r4
    2252:	c8 01       	movw	r24, r16
    2254:	0e 94 c3 0d 	call	0x1b86	; 0x1b86 <ssd1306_draw_pixel>
    2258:	b7 01       	movw	r22, r14
    225a:	8b 81       	ldd	r24, Y+3	; 0x03
    225c:	9c 81       	ldd	r25, Y+4	; 0x04
    225e:	68 1b       	sub	r22, r24
    2260:	79 0b       	sbc	r23, r25
    2262:	45 2d       	mov	r20, r5
    2264:	54 2d       	mov	r21, r4
    2266:	c8 01       	movw	r24, r16
    2268:	0e 94 c3 0d 	call	0x1b86	; 0x1b86 <ssd1306_draw_pixel>
    226c:	45 2d       	mov	r20, r5
    226e:	54 2d       	mov	r21, r4
    2270:	b7 01       	movw	r22, r14
    2272:	8b 81       	ldd	r24, Y+3	; 0x03
    2274:	9c 81       	ldd	r25, Y+4	; 0x04
    2276:	80 0f       	add	r24, r16
    2278:	91 1f       	adc	r25, r17
    227a:	0e 94 c3 0d 	call	0x1b86	; 0x1b86 <ssd1306_draw_pixel>
    227e:	45 2d       	mov	r20, r5
    2280:	54 2d       	mov	r21, r4
    2282:	b7 01       	movw	r22, r14
    2284:	c8 01       	movw	r24, r16
    2286:	2b 81       	ldd	r18, Y+3	; 0x03
    2288:	3c 81       	ldd	r19, Y+4	; 0x04
    228a:	82 1b       	sub	r24, r18
    228c:	93 0b       	sbc	r25, r19
    228e:	0e 94 c3 0d 	call	0x1b86	; 0x1b86 <ssd1306_draw_pixel>
    2292:	d1 2c       	mov	r13, r1
    2294:	c1 2c       	mov	r12, r1
    2296:	8b 81       	ldd	r24, Y+3	; 0x03
    2298:	9c 81       	ldd	r25, Y+4	; 0x04
    229a:	c8 16       	cp	r12, r24
    229c:	d9 06       	cpc	r13, r25
    229e:	bc f0       	brlt	.+46     	; 0x22ce <ssd1306_draw_circle+0xe0>
    22a0:	0f 90       	pop	r0
    22a2:	0f 90       	pop	r0
    22a4:	0f 90       	pop	r0
    22a6:	0f 90       	pop	r0
    22a8:	df 91       	pop	r29
    22aa:	cf 91       	pop	r28
    22ac:	1f 91       	pop	r17
    22ae:	0f 91       	pop	r16
    22b0:	ff 90       	pop	r15
    22b2:	ef 90       	pop	r14
    22b4:	df 90       	pop	r13
    22b6:	cf 90       	pop	r12
    22b8:	bf 90       	pop	r11
    22ba:	af 90       	pop	r10
    22bc:	9f 90       	pop	r9
    22be:	8f 90       	pop	r8
    22c0:	7f 90       	pop	r7
    22c2:	6f 90       	pop	r6
    22c4:	5f 90       	pop	r5
    22c6:	4f 90       	pop	r4
    22c8:	3f 90       	pop	r3
    22ca:	2f 90       	pop	r2
    22cc:	08 95       	ret
    22ce:	b7 fc       	sbrc	r11, 7
    22d0:	0d c0       	rjmp	.+26     	; 0x22ec <ssd1306_draw_circle+0xfe>
    22d2:	8b 81       	ldd	r24, Y+3	; 0x03
    22d4:	9c 81       	ldd	r25, Y+4	; 0x04
    22d6:	01 97       	sbiw	r24, 0x01	; 1
    22d8:	9c 83       	std	Y+4, r25	; 0x04
    22da:	8b 83       	std	Y+3, r24	; 0x03
    22dc:	29 81       	ldd	r18, Y+1	; 0x01
    22de:	3a 81       	ldd	r19, Y+2	; 0x02
    22e0:	2e 5f       	subi	r18, 0xFE	; 254
    22e2:	3f 4f       	sbci	r19, 0xFF	; 255
    22e4:	3a 83       	std	Y+2, r19	; 0x02
    22e6:	29 83       	std	Y+1, r18	; 0x01
    22e8:	a2 0e       	add	r10, r18
    22ea:	b3 1e       	adc	r11, r19
    22ec:	3f ef       	ldi	r19, 0xFF	; 255
    22ee:	c3 1a       	sub	r12, r19
    22f0:	d3 0a       	sbc	r13, r19
    22f2:	c6 01       	movw	r24, r12
    22f4:	88 0f       	add	r24, r24
    22f6:	99 1f       	adc	r25, r25
    22f8:	01 96       	adiw	r24, 0x01	; 1
    22fa:	a8 0e       	add	r10, r24
    22fc:	b9 1e       	adc	r11, r25
    22fe:	36 01       	movw	r6, r12
    2300:	60 0e       	add	r6, r16
    2302:	71 1e       	adc	r7, r17
    2304:	45 2d       	mov	r20, r5
    2306:	54 2d       	mov	r21, r4
    2308:	8b 80       	ldd	r8, Y+3	; 0x03
    230a:	9c 80       	ldd	r9, Y+4	; 0x04
    230c:	8e 0c       	add	r8, r14
    230e:	9f 1c       	adc	r9, r15
    2310:	b4 01       	movw	r22, r8
    2312:	c3 01       	movw	r24, r6
    2314:	0e 94 c3 0d 	call	0x1b86	; 0x1b86 <ssd1306_draw_pixel>
    2318:	18 01       	movw	r2, r16
    231a:	2c 18       	sub	r2, r12
    231c:	3d 08       	sbc	r3, r13
    231e:	45 2d       	mov	r20, r5
    2320:	54 2d       	mov	r21, r4
    2322:	b4 01       	movw	r22, r8
    2324:	c1 01       	movw	r24, r2
    2326:	0e 94 c3 0d 	call	0x1b86	; 0x1b86 <ssd1306_draw_pixel>
    232a:	45 2d       	mov	r20, r5
    232c:	54 2d       	mov	r21, r4
    232e:	47 01       	movw	r8, r14
    2330:	8b 81       	ldd	r24, Y+3	; 0x03
    2332:	9c 81       	ldd	r25, Y+4	; 0x04
    2334:	88 1a       	sub	r8, r24
    2336:	99 0a       	sbc	r9, r25
    2338:	b4 01       	movw	r22, r8
    233a:	c3 01       	movw	r24, r6
    233c:	0e 94 c3 0d 	call	0x1b86	; 0x1b86 <ssd1306_draw_pixel>
    2340:	45 2d       	mov	r20, r5
    2342:	54 2d       	mov	r21, r4
    2344:	b4 01       	movw	r22, r8
    2346:	c1 01       	movw	r24, r2
    2348:	0e 94 c3 0d 	call	0x1b86	; 0x1b86 <ssd1306_draw_pixel>
    234c:	46 01       	movw	r8, r12
    234e:	8e 0c       	add	r8, r14
    2350:	9f 1c       	adc	r9, r15
    2352:	45 2d       	mov	r20, r5
    2354:	54 2d       	mov	r21, r4
    2356:	b4 01       	movw	r22, r8
    2358:	6b 80       	ldd	r6, Y+3	; 0x03
    235a:	7c 80       	ldd	r7, Y+4	; 0x04
    235c:	60 0e       	add	r6, r16
    235e:	71 1e       	adc	r7, r17
    2360:	c3 01       	movw	r24, r6
    2362:	0e 94 c3 0d 	call	0x1b86	; 0x1b86 <ssd1306_draw_pixel>
    2366:	45 2d       	mov	r20, r5
    2368:	54 2d       	mov	r21, r4
    236a:	b4 01       	movw	r22, r8
    236c:	18 01       	movw	r2, r16
    236e:	2b 81       	ldd	r18, Y+3	; 0x03
    2370:	3c 81       	ldd	r19, Y+4	; 0x04
    2372:	22 1a       	sub	r2, r18
    2374:	33 0a       	sbc	r3, r19
    2376:	c1 01       	movw	r24, r2
    2378:	0e 94 c3 0d 	call	0x1b86	; 0x1b86 <ssd1306_draw_pixel>
    237c:	47 01       	movw	r8, r14
    237e:	8c 18       	sub	r8, r12
    2380:	9d 08       	sbc	r9, r13
    2382:	45 2d       	mov	r20, r5
    2384:	54 2d       	mov	r21, r4
    2386:	b4 01       	movw	r22, r8
    2388:	c3 01       	movw	r24, r6
    238a:	0e 94 c3 0d 	call	0x1b86	; 0x1b86 <ssd1306_draw_pixel>
    238e:	45 2d       	mov	r20, r5
    2390:	54 2d       	mov	r21, r4
    2392:	b4 01       	movw	r22, r8
    2394:	c1 01       	movw	r24, r2
    2396:	0e 94 c3 0d 	call	0x1b86	; 0x1b86 <ssd1306_draw_pixel>
    239a:	7d cf       	rjmp	.-262    	; 0x2296 <ssd1306_draw_circle+0xa8>

0000239c <ssd1306_draw_circle_helper>:
    239c:	2f 92       	push	r2
    239e:	3f 92       	push	r3
    23a0:	4f 92       	push	r4
    23a2:	5f 92       	push	r5
    23a4:	6f 92       	push	r6
    23a6:	7f 92       	push	r7
    23a8:	8f 92       	push	r8
    23aa:	9f 92       	push	r9
    23ac:	af 92       	push	r10
    23ae:	bf 92       	push	r11
    23b0:	cf 92       	push	r12
    23b2:	df 92       	push	r13
    23b4:	ef 92       	push	r14
    23b6:	ff 92       	push	r15
    23b8:	0f 93       	push	r16
    23ba:	1f 93       	push	r17
    23bc:	cf 93       	push	r28
    23be:	df 93       	push	r29
    23c0:	6c 01       	movw	r12, r24
    23c2:	5b 01       	movw	r10, r22
    23c4:	ea 01       	movw	r28, r20
    23c6:	81 e0       	ldi	r24, 0x01	; 1
    23c8:	90 e0       	ldi	r25, 0x00	; 0
    23ca:	4c 01       	movw	r8, r24
    23cc:	84 1a       	sub	r8, r20
    23ce:	95 0a       	sbc	r9, r21
    23d0:	66 24       	eor	r6, r6
    23d2:	77 24       	eor	r7, r7
    23d4:	64 1a       	sub	r6, r20
    23d6:	75 0a       	sbc	r7, r21
    23d8:	66 0c       	add	r6, r6
    23da:	77 1c       	adc	r7, r7
    23dc:	f1 2c       	mov	r15, r1
    23de:	e1 2c       	mov	r14, r1
    23e0:	82 2f       	mov	r24, r18
    23e2:	84 70       	andi	r24, 0x04	; 4
    23e4:	58 2e       	mov	r5, r24
    23e6:	82 2f       	mov	r24, r18
    23e8:	82 70       	andi	r24, 0x02	; 2
    23ea:	48 2e       	mov	r4, r24
    23ec:	82 2f       	mov	r24, r18
    23ee:	88 70       	andi	r24, 0x08	; 8
    23f0:	38 2e       	mov	r3, r24
    23f2:	21 70       	andi	r18, 0x01	; 1
    23f4:	22 2e       	mov	r2, r18
    23f6:	ec 16       	cp	r14, r28
    23f8:	fd 06       	cpc	r15, r29
    23fa:	9c f0       	brlt	.+38     	; 0x2422 <ssd1306_draw_circle_helper+0x86>
    23fc:	df 91       	pop	r29
    23fe:	cf 91       	pop	r28
    2400:	1f 91       	pop	r17
    2402:	0f 91       	pop	r16
    2404:	ff 90       	pop	r15
    2406:	ef 90       	pop	r14
    2408:	df 90       	pop	r13
    240a:	cf 90       	pop	r12
    240c:	bf 90       	pop	r11
    240e:	af 90       	pop	r10
    2410:	9f 90       	pop	r9
    2412:	8f 90       	pop	r8
    2414:	7f 90       	pop	r7
    2416:	6f 90       	pop	r6
    2418:	5f 90       	pop	r5
    241a:	4f 90       	pop	r4
    241c:	3f 90       	pop	r3
    241e:	2f 90       	pop	r2
    2420:	08 95       	ret
    2422:	97 fc       	sbrc	r9, 7
    2424:	06 c0       	rjmp	.+12     	; 0x2432 <ssd1306_draw_circle_helper+0x96>
    2426:	21 97       	sbiw	r28, 0x01	; 1
    2428:	82 e0       	ldi	r24, 0x02	; 2
    242a:	68 0e       	add	r6, r24
    242c:	71 1c       	adc	r7, r1
    242e:	86 0c       	add	r8, r6
    2430:	97 1c       	adc	r9, r7
    2432:	8f ef       	ldi	r24, 0xFF	; 255
    2434:	e8 1a       	sub	r14, r24
    2436:	f8 0a       	sbc	r15, r24
    2438:	c7 01       	movw	r24, r14
    243a:	88 0f       	add	r24, r24
    243c:	99 1f       	adc	r25, r25
    243e:	01 96       	adiw	r24, 0x01	; 1
    2440:	88 0e       	add	r8, r24
    2442:	99 1e       	adc	r9, r25
    2444:	55 20       	and	r5, r5
    2446:	91 f0       	breq	.+36     	; 0x246c <ssd1306_draw_circle_helper+0xd0>
    2448:	a8 01       	movw	r20, r16
    244a:	be 01       	movw	r22, r28
    244c:	6a 0d       	add	r22, r10
    244e:	7b 1d       	adc	r23, r11
    2450:	c6 01       	movw	r24, r12
    2452:	8e 0d       	add	r24, r14
    2454:	9f 1d       	adc	r25, r15
    2456:	0e 94 c3 0d 	call	0x1b86	; 0x1b86 <ssd1306_draw_pixel>
    245a:	a8 01       	movw	r20, r16
    245c:	b5 01       	movw	r22, r10
    245e:	6e 0d       	add	r22, r14
    2460:	7f 1d       	adc	r23, r15
    2462:	ce 01       	movw	r24, r28
    2464:	8c 0d       	add	r24, r12
    2466:	9d 1d       	adc	r25, r13
    2468:	0e 94 c3 0d 	call	0x1b86	; 0x1b86 <ssd1306_draw_pixel>
    246c:	44 20       	and	r4, r4
    246e:	91 f0       	breq	.+36     	; 0x2494 <ssd1306_draw_circle_helper+0xf8>
    2470:	a8 01       	movw	r20, r16
    2472:	b5 01       	movw	r22, r10
    2474:	6c 1b       	sub	r22, r28
    2476:	7d 0b       	sbc	r23, r29
    2478:	c6 01       	movw	r24, r12
    247a:	8e 0d       	add	r24, r14
    247c:	9f 1d       	adc	r25, r15
    247e:	0e 94 c3 0d 	call	0x1b86	; 0x1b86 <ssd1306_draw_pixel>
    2482:	a8 01       	movw	r20, r16
    2484:	b5 01       	movw	r22, r10
    2486:	6e 19       	sub	r22, r14
    2488:	7f 09       	sbc	r23, r15
    248a:	ce 01       	movw	r24, r28
    248c:	8c 0d       	add	r24, r12
    248e:	9d 1d       	adc	r25, r13
    2490:	0e 94 c3 0d 	call	0x1b86	; 0x1b86 <ssd1306_draw_pixel>
    2494:	33 20       	and	r3, r3
    2496:	91 f0       	breq	.+36     	; 0x24bc <ssd1306_draw_circle_helper+0x120>
    2498:	a8 01       	movw	r20, r16
    249a:	b5 01       	movw	r22, r10
    249c:	6e 0d       	add	r22, r14
    249e:	7f 1d       	adc	r23, r15
    24a0:	c6 01       	movw	r24, r12
    24a2:	8c 1b       	sub	r24, r28
    24a4:	9d 0b       	sbc	r25, r29
    24a6:	0e 94 c3 0d 	call	0x1b86	; 0x1b86 <ssd1306_draw_pixel>
    24aa:	a8 01       	movw	r20, r16
    24ac:	be 01       	movw	r22, r28
    24ae:	6a 0d       	add	r22, r10
    24b0:	7b 1d       	adc	r23, r11
    24b2:	c6 01       	movw	r24, r12
    24b4:	8e 19       	sub	r24, r14
    24b6:	9f 09       	sbc	r25, r15
    24b8:	0e 94 c3 0d 	call	0x1b86	; 0x1b86 <ssd1306_draw_pixel>
    24bc:	22 20       	and	r2, r2
    24be:	09 f4       	brne	.+2      	; 0x24c2 <ssd1306_draw_circle_helper+0x126>
    24c0:	9a cf       	rjmp	.-204    	; 0x23f6 <ssd1306_draw_circle_helper+0x5a>
    24c2:	a8 01       	movw	r20, r16
    24c4:	b5 01       	movw	r22, r10
    24c6:	6e 19       	sub	r22, r14
    24c8:	7f 09       	sbc	r23, r15
    24ca:	c6 01       	movw	r24, r12
    24cc:	8c 1b       	sub	r24, r28
    24ce:	9d 0b       	sbc	r25, r29
    24d0:	0e 94 c3 0d 	call	0x1b86	; 0x1b86 <ssd1306_draw_pixel>
    24d4:	a8 01       	movw	r20, r16
    24d6:	b5 01       	movw	r22, r10
    24d8:	6c 1b       	sub	r22, r28
    24da:	7d 0b       	sbc	r23, r29
    24dc:	c6 01       	movw	r24, r12
    24de:	8e 19       	sub	r24, r14
    24e0:	9f 09       	sbc	r25, r15
    24e2:	0e 94 c3 0d 	call	0x1b86	; 0x1b86 <ssd1306_draw_pixel>
    24e6:	87 cf       	rjmp	.-242    	; 0x23f6 <ssd1306_draw_circle_helper+0x5a>

000024e8 <ssd1306_fill_circle_helper>:
    24e8:	2f 92       	push	r2
    24ea:	3f 92       	push	r3
    24ec:	4f 92       	push	r4
    24ee:	5f 92       	push	r5
    24f0:	6f 92       	push	r6
    24f2:	7f 92       	push	r7
    24f4:	8f 92       	push	r8
    24f6:	9f 92       	push	r9
    24f8:	af 92       	push	r10
    24fa:	bf 92       	push	r11
    24fc:	cf 92       	push	r12
    24fe:	df 92       	push	r13
    2500:	ef 92       	push	r14
    2502:	ff 92       	push	r15
    2504:	0f 93       	push	r16
    2506:	1f 93       	push	r17
    2508:	cf 93       	push	r28
    250a:	df 93       	push	r29
    250c:	00 d0       	rcall	.+0      	; 0x250e <ssd1306_fill_circle_helper+0x26>
    250e:	00 d0       	rcall	.+0      	; 0x2510 <ssd1306_fill_circle_helper+0x28>
    2510:	cd b7       	in	r28, 0x3d	; 61
    2512:	de b7       	in	r29, 0x3e	; 62
    2514:	2c 01       	movw	r4, r24
    2516:	5b 01       	movw	r10, r22
    2518:	4b 83       	std	Y+3, r20	; 0x03
    251a:	5c 83       	std	Y+4, r21	; 0x04
    251c:	48 01       	movw	r8, r16
    251e:	81 e0       	ldi	r24, 0x01	; 1
    2520:	90 e0       	ldi	r25, 0x00	; 0
    2522:	6c 01       	movw	r12, r24
    2524:	4b 81       	ldd	r20, Y+3	; 0x03
    2526:	5c 81       	ldd	r21, Y+4	; 0x04
    2528:	c4 1a       	sub	r12, r20
    252a:	d5 0a       	sbc	r13, r21
    252c:	1a 01       	movw	r2, r20
    252e:	31 94       	neg	r3
    2530:	21 94       	neg	r2
    2532:	31 08       	sbc	r3, r1
    2534:	22 0c       	add	r2, r2
    2536:	33 1c       	adc	r3, r3
    2538:	10 e0       	ldi	r17, 0x00	; 0
    253a:	00 e0       	ldi	r16, 0x00	; 0
    253c:	66 24       	eor	r6, r6
    253e:	63 94       	inc	r6
    2540:	71 2c       	mov	r7, r1
    2542:	52 2f       	mov	r21, r18
    2544:	51 70       	andi	r21, 0x01	; 1
    2546:	59 83       	std	Y+1, r21	; 0x01
    2548:	22 70       	andi	r18, 0x02	; 2
    254a:	2a 83       	std	Y+2, r18	; 0x02
    254c:	4b 81       	ldd	r20, Y+3	; 0x03
    254e:	5c 81       	ldd	r21, Y+4	; 0x04
    2550:	04 17       	cp	r16, r20
    2552:	15 07       	cpc	r17, r21
    2554:	bc f0       	brlt	.+46     	; 0x2584 <ssd1306_fill_circle_helper+0x9c>
    2556:	0f 90       	pop	r0
    2558:	0f 90       	pop	r0
    255a:	0f 90       	pop	r0
    255c:	0f 90       	pop	r0
    255e:	df 91       	pop	r29
    2560:	cf 91       	pop	r28
    2562:	1f 91       	pop	r17
    2564:	0f 91       	pop	r16
    2566:	ff 90       	pop	r15
    2568:	ef 90       	pop	r14
    256a:	df 90       	pop	r13
    256c:	cf 90       	pop	r12
    256e:	bf 90       	pop	r11
    2570:	af 90       	pop	r10
    2572:	9f 90       	pop	r9
    2574:	8f 90       	pop	r8
    2576:	7f 90       	pop	r7
    2578:	6f 90       	pop	r6
    257a:	5f 90       	pop	r5
    257c:	4f 90       	pop	r4
    257e:	3f 90       	pop	r3
    2580:	2f 90       	pop	r2
    2582:	08 95       	ret
    2584:	d7 fc       	sbrc	r13, 7
    2586:	0a c0       	rjmp	.+20     	; 0x259c <ssd1306_fill_circle_helper+0xb4>
    2588:	8b 81       	ldd	r24, Y+3	; 0x03
    258a:	9c 81       	ldd	r25, Y+4	; 0x04
    258c:	01 97       	sbiw	r24, 0x01	; 1
    258e:	9c 83       	std	Y+4, r25	; 0x04
    2590:	8b 83       	std	Y+3, r24	; 0x03
    2592:	92 e0       	ldi	r25, 0x02	; 2
    2594:	29 0e       	add	r2, r25
    2596:	31 1c       	adc	r3, r1
    2598:	c2 0c       	add	r12, r2
    259a:	d3 1c       	adc	r13, r3
    259c:	0f 5f       	subi	r16, 0xFF	; 255
    259e:	1f 4f       	sbci	r17, 0xFF	; 255
    25a0:	e2 e0       	ldi	r30, 0x02	; 2
    25a2:	6e 0e       	add	r6, r30
    25a4:	71 1c       	adc	r7, r1
    25a6:	c6 0c       	add	r12, r6
    25a8:	d7 1c       	adc	r13, r7
    25aa:	f9 81       	ldd	r31, Y+1	; 0x01
    25ac:	ff 23       	and	r31, r31
    25ae:	01 f1       	breq	.+64     	; 0x25f0 <ssd1306_fill_circle_helper+0x108>
    25b0:	4b 81       	ldd	r20, Y+3	; 0x03
    25b2:	5c 81       	ldd	r21, Y+4	; 0x04
    25b4:	44 0f       	add	r20, r20
    25b6:	55 1f       	adc	r21, r21
    25b8:	4f 5f       	subi	r20, 0xFF	; 255
    25ba:	5f 4f       	sbci	r21, 0xFF	; 255
    25bc:	48 0d       	add	r20, r8
    25be:	59 1d       	adc	r21, r9
    25c0:	97 01       	movw	r18, r14
    25c2:	b5 01       	movw	r22, r10
    25c4:	8b 81       	ldd	r24, Y+3	; 0x03
    25c6:	9c 81       	ldd	r25, Y+4	; 0x04
    25c8:	68 1b       	sub	r22, r24
    25ca:	79 0b       	sbc	r23, r25
    25cc:	c2 01       	movw	r24, r4
    25ce:	80 0f       	add	r24, r16
    25d0:	91 1f       	adc	r25, r17
    25d2:	0e 94 c2 10 	call	0x2184	; 0x2184 <ssd1306_draw_fast_vline>
    25d6:	97 01       	movw	r18, r14
    25d8:	a4 01       	movw	r20, r8
    25da:	46 0d       	add	r20, r6
    25dc:	57 1d       	adc	r21, r7
    25de:	b5 01       	movw	r22, r10
    25e0:	60 1b       	sub	r22, r16
    25e2:	71 0b       	sbc	r23, r17
    25e4:	8b 81       	ldd	r24, Y+3	; 0x03
    25e6:	9c 81       	ldd	r25, Y+4	; 0x04
    25e8:	84 0d       	add	r24, r4
    25ea:	95 1d       	adc	r25, r5
    25ec:	0e 94 c2 10 	call	0x2184	; 0x2184 <ssd1306_draw_fast_vline>
    25f0:	9a 81       	ldd	r25, Y+2	; 0x02
    25f2:	99 23       	and	r25, r25
    25f4:	09 f4       	brne	.+2      	; 0x25f8 <ssd1306_fill_circle_helper+0x110>
    25f6:	aa cf       	rjmp	.-172    	; 0x254c <ssd1306_fill_circle_helper+0x64>
    25f8:	4b 81       	ldd	r20, Y+3	; 0x03
    25fa:	5c 81       	ldd	r21, Y+4	; 0x04
    25fc:	44 0f       	add	r20, r20
    25fe:	55 1f       	adc	r21, r21
    2600:	4f 5f       	subi	r20, 0xFF	; 255
    2602:	5f 4f       	sbci	r21, 0xFF	; 255
    2604:	48 0d       	add	r20, r8
    2606:	59 1d       	adc	r21, r9
    2608:	97 01       	movw	r18, r14
    260a:	b5 01       	movw	r22, r10
    260c:	eb 81       	ldd	r30, Y+3	; 0x03
    260e:	fc 81       	ldd	r31, Y+4	; 0x04
    2610:	6e 1b       	sub	r22, r30
    2612:	7f 0b       	sbc	r23, r31
    2614:	c2 01       	movw	r24, r4
    2616:	80 1b       	sub	r24, r16
    2618:	91 0b       	sbc	r25, r17
    261a:	0e 94 c2 10 	call	0x2184	; 0x2184 <ssd1306_draw_fast_vline>
    261e:	97 01       	movw	r18, r14
    2620:	a3 01       	movw	r20, r6
    2622:	48 0d       	add	r20, r8
    2624:	59 1d       	adc	r21, r9
    2626:	b5 01       	movw	r22, r10
    2628:	60 1b       	sub	r22, r16
    262a:	71 0b       	sbc	r23, r17
    262c:	c2 01       	movw	r24, r4
    262e:	eb 81       	ldd	r30, Y+3	; 0x03
    2630:	fc 81       	ldd	r31, Y+4	; 0x04
    2632:	8e 1b       	sub	r24, r30
    2634:	9f 0b       	sbc	r25, r31
    2636:	0e 94 c2 10 	call	0x2184	; 0x2184 <ssd1306_draw_fast_vline>
    263a:	88 cf       	rjmp	.-240    	; 0x254c <ssd1306_fill_circle_helper+0x64>

0000263c <ssd1306_fill_circle>:
    263c:	af 92       	push	r10
    263e:	bf 92       	push	r11
    2640:	cf 92       	push	r12
    2642:	df 92       	push	r13
    2644:	ef 92       	push	r14
    2646:	ff 92       	push	r15
    2648:	0f 93       	push	r16
    264a:	1f 93       	push	r17
    264c:	cf 93       	push	r28
    264e:	df 93       	push	r29
    2650:	6c 01       	movw	r12, r24
    2652:	5b 01       	movw	r10, r22
    2654:	ea 01       	movw	r28, r20
    2656:	79 01       	movw	r14, r18
    2658:	44 0f       	add	r20, r20
    265a:	55 1f       	adc	r21, r21
    265c:	4f 5f       	subi	r20, 0xFF	; 255
    265e:	5f 4f       	sbci	r21, 0xFF	; 255
    2660:	6c 1b       	sub	r22, r28
    2662:	7d 0b       	sbc	r23, r29
    2664:	c6 01       	movw	r24, r12
    2666:	0e 94 c2 10 	call	0x2184	; 0x2184 <ssd1306_draw_fast_vline>
    266a:	10 e0       	ldi	r17, 0x00	; 0
    266c:	00 e0       	ldi	r16, 0x00	; 0
    266e:	23 e0       	ldi	r18, 0x03	; 3
    2670:	ae 01       	movw	r20, r28
    2672:	b5 01       	movw	r22, r10
    2674:	c6 01       	movw	r24, r12
    2676:	0e 94 74 12 	call	0x24e8	; 0x24e8 <ssd1306_fill_circle_helper>
    267a:	df 91       	pop	r29
    267c:	cf 91       	pop	r28
    267e:	1f 91       	pop	r17
    2680:	0f 91       	pop	r16
    2682:	ff 90       	pop	r15
    2684:	ef 90       	pop	r14
    2686:	df 90       	pop	r13
    2688:	cf 90       	pop	r12
    268a:	bf 90       	pop	r11
    268c:	af 90       	pop	r10
    268e:	08 95       	ret

00002690 <ssd1306_draw_line>:
    2690:	2f 92       	push	r2
    2692:	3f 92       	push	r3
    2694:	4f 92       	push	r4
    2696:	5f 92       	push	r5
    2698:	6f 92       	push	r6
    269a:	7f 92       	push	r7
    269c:	8f 92       	push	r8
    269e:	9f 92       	push	r9
    26a0:	af 92       	push	r10
    26a2:	bf 92       	push	r11
    26a4:	cf 92       	push	r12
    26a6:	df 92       	push	r13
    26a8:	ef 92       	push	r14
    26aa:	ff 92       	push	r15
    26ac:	0f 93       	push	r16
    26ae:	1f 93       	push	r17
    26b0:	cf 93       	push	r28
    26b2:	df 93       	push	r29
    26b4:	00 d0       	rcall	.+0      	; 0x26b6 <ssd1306_draw_line+0x26>
    26b6:	00 d0       	rcall	.+0      	; 0x26b8 <ssd1306_draw_line+0x28>
    26b8:	cd b7       	in	r28, 0x3d	; 61
    26ba:	de b7       	in	r29, 0x3e	; 62
    26bc:	8b 83       	std	Y+3, r24	; 0x03
    26be:	9c 83       	std	Y+4, r25	; 0x04
    26c0:	7b 01       	movw	r14, r22
    26c2:	6a 01       	movw	r12, r20
    26c4:	c9 01       	movw	r24, r18
    26c6:	09 83       	std	Y+1, r16	; 0x01
    26c8:	1a 83       	std	Y+2, r17	; 0x02
    26ca:	89 01       	movw	r16, r18
    26cc:	06 1b       	sub	r16, r22
    26ce:	17 0b       	sbc	r17, r23
    26d0:	17 ff       	sbrs	r17, 7
    26d2:	03 c0       	rjmp	.+6      	; 0x26da <ssd1306_draw_line+0x4a>
    26d4:	11 95       	neg	r17
    26d6:	01 95       	neg	r16
    26d8:	11 09       	sbc	r17, r1
    26da:	46 01       	movw	r8, r12
    26dc:	2b 81       	ldd	r18, Y+3	; 0x03
    26de:	3c 81       	ldd	r19, Y+4	; 0x04
    26e0:	82 1a       	sub	r8, r18
    26e2:	93 0a       	sbc	r9, r19
    26e4:	97 fe       	sbrs	r9, 7
    26e6:	03 c0       	rjmp	.+6      	; 0x26ee <ssd1306_draw_line+0x5e>
    26e8:	91 94       	neg	r9
    26ea:	81 94       	neg	r8
    26ec:	91 08       	sbc	r9, r1
    26ee:	80 16       	cp	r8, r16
    26f0:	91 06       	cpc	r9, r17
    26f2:	5c f4       	brge	.+22     	; 0x270a <ssd1306_draw_line+0x7a>
    26f4:	3c 2d       	mov	r19, r12
    26f6:	2d 2d       	mov	r18, r13
    26f8:	6c 01       	movw	r12, r24
    26fa:	83 2f       	mov	r24, r19
    26fc:	92 2f       	mov	r25, r18
    26fe:	3b 81       	ldd	r19, Y+3	; 0x03
    2700:	2c 81       	ldd	r18, Y+4	; 0x04
    2702:	fc 82       	std	Y+4, r15	; 0x04
    2704:	eb 82       	std	Y+3, r14	; 0x03
    2706:	e3 2e       	mov	r14, r19
    2708:	f2 2e       	mov	r15, r18
    270a:	2b 81       	ldd	r18, Y+3	; 0x03
    270c:	3c 81       	ldd	r19, Y+4	; 0x04
    270e:	c2 16       	cp	r12, r18
    2710:	d3 06       	cpc	r13, r19
    2712:	5c f4       	brge	.+22     	; 0x272a <ssd1306_draw_line+0x9a>
    2714:	3e 2d       	mov	r19, r14
    2716:	2f 2d       	mov	r18, r15
    2718:	7c 01       	movw	r14, r24
    271a:	83 2f       	mov	r24, r19
    271c:	92 2f       	mov	r25, r18
    271e:	3b 81       	ldd	r19, Y+3	; 0x03
    2720:	2c 81       	ldd	r18, Y+4	; 0x04
    2722:	dc 82       	std	Y+4, r13	; 0x04
    2724:	cb 82       	std	Y+3, r12	; 0x03
    2726:	c3 2e       	mov	r12, r19
    2728:	d2 2e       	mov	r13, r18
    272a:	16 01       	movw	r2, r12
    272c:	2b 81       	ldd	r18, Y+3	; 0x03
    272e:	3c 81       	ldd	r19, Y+4	; 0x04
    2730:	22 1a       	sub	r2, r18
    2732:	33 0a       	sbc	r3, r19
    2734:	2c 01       	movw	r4, r24
    2736:	4e 18       	sub	r4, r14
    2738:	5f 08       	sbc	r5, r15
    273a:	57 fe       	sbrs	r5, 7
    273c:	03 c0       	rjmp	.+6      	; 0x2744 <ssd1306_draw_line+0xb4>
    273e:	51 94       	neg	r5
    2740:	41 94       	neg	r4
    2742:	51 08       	sbc	r5, r1
    2744:	31 01       	movw	r6, r2
    2746:	37 fe       	sbrs	r3, 7
    2748:	03 c0       	rjmp	.+6      	; 0x2750 <ssd1306_draw_line+0xc0>
    274a:	3f ef       	ldi	r19, 0xFF	; 255
    274c:	63 1a       	sub	r6, r19
    274e:	73 0a       	sbc	r7, r19
    2750:	75 94       	asr	r7
    2752:	67 94       	ror	r6
    2754:	e8 16       	cp	r14, r24
    2756:	f9 06       	cpc	r15, r25
    2758:	d4 f1       	brlt	.+116    	; 0x27ce <ssd1306_draw_line+0x13e>
    275a:	aa 24       	eor	r10, r10
    275c:	aa 94       	dec	r10
    275e:	ba 2c       	mov	r11, r10
    2760:	2b 81       	ldd	r18, Y+3	; 0x03
    2762:	3c 81       	ldd	r19, Y+4	; 0x04
    2764:	c2 16       	cp	r12, r18
    2766:	d3 06       	cpc	r13, r19
    2768:	bc f4       	brge	.+46     	; 0x2798 <ssd1306_draw_line+0x108>
    276a:	0f 90       	pop	r0
    276c:	0f 90       	pop	r0
    276e:	0f 90       	pop	r0
    2770:	0f 90       	pop	r0
    2772:	df 91       	pop	r29
    2774:	cf 91       	pop	r28
    2776:	1f 91       	pop	r17
    2778:	0f 91       	pop	r16
    277a:	ff 90       	pop	r15
    277c:	ef 90       	pop	r14
    277e:	df 90       	pop	r13
    2780:	cf 90       	pop	r12
    2782:	bf 90       	pop	r11
    2784:	af 90       	pop	r10
    2786:	9f 90       	pop	r9
    2788:	8f 90       	pop	r8
    278a:	7f 90       	pop	r7
    278c:	6f 90       	pop	r6
    278e:	5f 90       	pop	r5
    2790:	4f 90       	pop	r4
    2792:	3f 90       	pop	r3
    2794:	2f 90       	pop	r2
    2796:	08 95       	ret
    2798:	49 81       	ldd	r20, Y+1	; 0x01
    279a:	5a 81       	ldd	r21, Y+2	; 0x02
    279c:	6b 81       	ldd	r22, Y+3	; 0x03
    279e:	7c 81       	ldd	r23, Y+4	; 0x04
    27a0:	c7 01       	movw	r24, r14
    27a2:	80 16       	cp	r8, r16
    27a4:	91 06       	cpc	r9, r17
    27a6:	1c f0       	brlt	.+6      	; 0x27ae <ssd1306_draw_line+0x11e>
    27a8:	b7 01       	movw	r22, r14
    27aa:	8b 81       	ldd	r24, Y+3	; 0x03
    27ac:	9c 81       	ldd	r25, Y+4	; 0x04
    27ae:	0e 94 c3 0d 	call	0x1b86	; 0x1b86 <ssd1306_draw_pixel>
    27b2:	64 18       	sub	r6, r4
    27b4:	75 08       	sbc	r7, r5
    27b6:	77 fe       	sbrs	r7, 7
    27b8:	04 c0       	rjmp	.+8      	; 0x27c2 <ssd1306_draw_line+0x132>
    27ba:	ea 0c       	add	r14, r10
    27bc:	fb 1c       	adc	r15, r11
    27be:	62 0c       	add	r6, r2
    27c0:	73 1c       	adc	r7, r3
    27c2:	8b 81       	ldd	r24, Y+3	; 0x03
    27c4:	9c 81       	ldd	r25, Y+4	; 0x04
    27c6:	01 96       	adiw	r24, 0x01	; 1
    27c8:	9c 83       	std	Y+4, r25	; 0x04
    27ca:	8b 83       	std	Y+3, r24	; 0x03
    27cc:	c9 cf       	rjmp	.-110    	; 0x2760 <ssd1306_draw_line+0xd0>
    27ce:	aa 24       	eor	r10, r10
    27d0:	a3 94       	inc	r10
    27d2:	b1 2c       	mov	r11, r1
    27d4:	c5 cf       	rjmp	.-118    	; 0x2760 <ssd1306_draw_line+0xd0>

000027d6 <ssd1306_draw_rect>:
    27d6:	af 92       	push	r10
    27d8:	bf 92       	push	r11
    27da:	cf 92       	push	r12
    27dc:	df 92       	push	r13
    27de:	ef 92       	push	r14
    27e0:	ff 92       	push	r15
    27e2:	0f 93       	push	r16
    27e4:	1f 93       	push	r17
    27e6:	cf 93       	push	r28
    27e8:	df 93       	push	r29
    27ea:	ec 01       	movw	r28, r24
    27ec:	7b 01       	movw	r14, r22
    27ee:	5a 01       	movw	r10, r20
    27f0:	69 01       	movw	r12, r18
    27f2:	98 01       	movw	r18, r16
    27f4:	0e 94 8c 10 	call	0x2118	; 0x2118 <ssd1306_draw_fast_hline>
    27f8:	b7 01       	movw	r22, r14
    27fa:	6c 0d       	add	r22, r12
    27fc:	7d 1d       	adc	r23, r13
    27fe:	61 50       	subi	r22, 0x01	; 1
    2800:	71 09       	sbc	r23, r1
    2802:	98 01       	movw	r18, r16
    2804:	a5 01       	movw	r20, r10
    2806:	ce 01       	movw	r24, r28
    2808:	0e 94 8c 10 	call	0x2118	; 0x2118 <ssd1306_draw_fast_hline>
    280c:	98 01       	movw	r18, r16
    280e:	a6 01       	movw	r20, r12
    2810:	b7 01       	movw	r22, r14
    2812:	ce 01       	movw	r24, r28
    2814:	0e 94 c2 10 	call	0x2184	; 0x2184 <ssd1306_draw_fast_vline>
    2818:	ce 01       	movw	r24, r28
    281a:	8a 0d       	add	r24, r10
    281c:	9b 1d       	adc	r25, r11
    281e:	98 01       	movw	r18, r16
    2820:	a6 01       	movw	r20, r12
    2822:	b7 01       	movw	r22, r14
    2824:	01 97       	sbiw	r24, 0x01	; 1
    2826:	df 91       	pop	r29
    2828:	cf 91       	pop	r28
    282a:	1f 91       	pop	r17
    282c:	0f 91       	pop	r16
    282e:	ff 90       	pop	r15
    2830:	ef 90       	pop	r14
    2832:	df 90       	pop	r13
    2834:	cf 90       	pop	r12
    2836:	bf 90       	pop	r11
    2838:	af 90       	pop	r10
    283a:	0c 94 c2 10 	jmp	0x2184	; 0x2184 <ssd1306_draw_fast_vline>

0000283e <ssd1306_fill_rect>:
    283e:	af 92       	push	r10
    2840:	bf 92       	push	r11
    2842:	cf 92       	push	r12
    2844:	df 92       	push	r13
    2846:	ef 92       	push	r14
    2848:	ff 92       	push	r15
    284a:	0f 93       	push	r16
    284c:	1f 93       	push	r17
    284e:	cf 93       	push	r28
    2850:	df 93       	push	r29
    2852:	d6 2e       	mov	r13, r22
    2854:	c7 2e       	mov	r12, r23
    2856:	b2 2e       	mov	r11, r18
    2858:	a3 2e       	mov	r10, r19
    285a:	ec 01       	movw	r28, r24
    285c:	7c 01       	movw	r14, r24
    285e:	e4 0e       	add	r14, r20
    2860:	f5 1e       	adc	r15, r21
    2862:	ce 15       	cp	r28, r14
    2864:	df 05       	cpc	r29, r15
    2866:	5c f0       	brlt	.+22     	; 0x287e <ssd1306_fill_rect+0x40>
    2868:	df 91       	pop	r29
    286a:	cf 91       	pop	r28
    286c:	1f 91       	pop	r17
    286e:	0f 91       	pop	r16
    2870:	ff 90       	pop	r15
    2872:	ef 90       	pop	r14
    2874:	df 90       	pop	r13
    2876:	cf 90       	pop	r12
    2878:	bf 90       	pop	r11
    287a:	af 90       	pop	r10
    287c:	08 95       	ret
    287e:	98 01       	movw	r18, r16
    2880:	4b 2d       	mov	r20, r11
    2882:	5a 2d       	mov	r21, r10
    2884:	6d 2d       	mov	r22, r13
    2886:	7c 2d       	mov	r23, r12
    2888:	ce 01       	movw	r24, r28
    288a:	0e 94 c2 10 	call	0x2184	; 0x2184 <ssd1306_draw_fast_vline>
    288e:	21 96       	adiw	r28, 0x01	; 1
    2890:	e8 cf       	rjmp	.-48     	; 0x2862 <ssd1306_fill_rect+0x24>

00002892 <ssd1306_fill_screen>:
    2892:	0f 93       	push	r16
    2894:	1f 93       	push	r17
    2896:	8c 01       	movw	r16, r24
    2898:	20 91 4a 03 	lds	r18, 0x034A	; 0x80034a <_height>
    289c:	30 91 4b 03 	lds	r19, 0x034B	; 0x80034b <_height+0x1>
    28a0:	40 91 4c 03 	lds	r20, 0x034C	; 0x80034c <_width>
    28a4:	50 91 4d 03 	lds	r21, 0x034D	; 0x80034d <_width+0x1>
    28a8:	70 e0       	ldi	r23, 0x00	; 0
    28aa:	60 e0       	ldi	r22, 0x00	; 0
    28ac:	90 e0       	ldi	r25, 0x00	; 0
    28ae:	80 e0       	ldi	r24, 0x00	; 0
    28b0:	0e 94 1f 14 	call	0x283e	; 0x283e <ssd1306_fill_rect>
    28b4:	1f 91       	pop	r17
    28b6:	0f 91       	pop	r16
    28b8:	08 95       	ret

000028ba <ssd1306_draw_round_rect>:
    28ba:	2f 92       	push	r2
    28bc:	3f 92       	push	r3
    28be:	4f 92       	push	r4
    28c0:	5f 92       	push	r5
    28c2:	6f 92       	push	r6
    28c4:	7f 92       	push	r7
    28c6:	8f 92       	push	r8
    28c8:	9f 92       	push	r9
    28ca:	af 92       	push	r10
    28cc:	bf 92       	push	r11
    28ce:	cf 92       	push	r12
    28d0:	df 92       	push	r13
    28d2:	ef 92       	push	r14
    28d4:	ff 92       	push	r15
    28d6:	0f 93       	push	r16
    28d8:	1f 93       	push	r17
    28da:	cf 93       	push	r28
    28dc:	df 93       	push	r29
    28de:	00 d0       	rcall	.+0      	; 0x28e0 <ssd1306_draw_round_rect+0x26>
    28e0:	00 d0       	rcall	.+0      	; 0x28e2 <ssd1306_draw_round_rect+0x28>
    28e2:	cd b7       	in	r28, 0x3d	; 61
    28e4:	de b7       	in	r29, 0x3e	; 62
    28e6:	5c 01       	movw	r10, r24
    28e8:	6b 01       	movw	r12, r22
    28ea:	1a 01       	movw	r2, r20
    28ec:	29 01       	movw	r4, r18
    28ee:	0b 83       	std	Y+3, r16	; 0x03
    28f0:	1c 83       	std	Y+4, r17	; 0x04
    28f2:	0b 81       	ldd	r16, Y+3	; 0x03
    28f4:	1c 81       	ldd	r17, Y+4	; 0x04
    28f6:	00 0f       	add	r16, r16
    28f8:	11 1f       	adc	r17, r17
    28fa:	3a 01       	movw	r6, r20
    28fc:	60 1a       	sub	r6, r16
    28fe:	71 0a       	sbc	r7, r17
    2900:	8b 80       	ldd	r8, Y+3	; 0x03
    2902:	9c 80       	ldd	r9, Y+4	; 0x04
    2904:	8a 0c       	add	r8, r10
    2906:	9b 1c       	adc	r9, r11
    2908:	97 01       	movw	r18, r14
    290a:	a3 01       	movw	r20, r6
    290c:	c4 01       	movw	r24, r8
    290e:	0e 94 8c 10 	call	0x2118	; 0x2118 <ssd1306_draw_fast_hline>
    2912:	c6 01       	movw	r24, r12
    2914:	84 0d       	add	r24, r4
    2916:	95 1d       	adc	r25, r5
    2918:	9a 83       	std	Y+2, r25	; 0x02
    291a:	89 83       	std	Y+1, r24	; 0x01
    291c:	bc 01       	movw	r22, r24
    291e:	61 50       	subi	r22, 0x01	; 1
    2920:	71 09       	sbc	r23, r1
    2922:	97 01       	movw	r18, r14
    2924:	a3 01       	movw	r20, r6
    2926:	c4 01       	movw	r24, r8
    2928:	0e 94 8c 10 	call	0x2118	; 0x2118 <ssd1306_draw_fast_hline>
    292c:	40 1a       	sub	r4, r16
    292e:	51 0a       	sbc	r5, r17
    2930:	8b 81       	ldd	r24, Y+3	; 0x03
    2932:	9c 81       	ldd	r25, Y+4	; 0x04
    2934:	c8 0e       	add	r12, r24
    2936:	d9 1e       	adc	r13, r25
    2938:	97 01       	movw	r18, r14
    293a:	a2 01       	movw	r20, r4
    293c:	b6 01       	movw	r22, r12
    293e:	c5 01       	movw	r24, r10
    2940:	0e 94 c2 10 	call	0x2184	; 0x2184 <ssd1306_draw_fast_vline>
    2944:	a2 0c       	add	r10, r2
    2946:	b3 1c       	adc	r11, r3
    2948:	97 01       	movw	r18, r14
    294a:	a2 01       	movw	r20, r4
    294c:	b6 01       	movw	r22, r12
    294e:	c5 01       	movw	r24, r10
    2950:	01 97       	sbiw	r24, 0x01	; 1
    2952:	0e 94 c2 10 	call	0x2184	; 0x2184 <ssd1306_draw_fast_vline>
    2956:	87 01       	movw	r16, r14
    2958:	21 e0       	ldi	r18, 0x01	; 1
    295a:	4b 81       	ldd	r20, Y+3	; 0x03
    295c:	5c 81       	ldd	r21, Y+4	; 0x04
    295e:	b6 01       	movw	r22, r12
    2960:	c4 01       	movw	r24, r8
    2962:	0e 94 ce 11 	call	0x239c	; 0x239c <ssd1306_draw_circle_helper>
    2966:	8b 81       	ldd	r24, Y+3	; 0x03
    2968:	9c 81       	ldd	r25, Y+4	; 0x04
    296a:	a8 1a       	sub	r10, r24
    296c:	b9 0a       	sbc	r11, r25
    296e:	91 e0       	ldi	r25, 0x01	; 1
    2970:	a9 1a       	sub	r10, r25
    2972:	b1 08       	sbc	r11, r1
    2974:	22 e0       	ldi	r18, 0x02	; 2
    2976:	4b 81       	ldd	r20, Y+3	; 0x03
    2978:	5c 81       	ldd	r21, Y+4	; 0x04
    297a:	b6 01       	movw	r22, r12
    297c:	c5 01       	movw	r24, r10
    297e:	0e 94 ce 11 	call	0x239c	; 0x239c <ssd1306_draw_circle_helper>
    2982:	c9 80       	ldd	r12, Y+1	; 0x01
    2984:	da 80       	ldd	r13, Y+2	; 0x02
    2986:	8b 81       	ldd	r24, Y+3	; 0x03
    2988:	9c 81       	ldd	r25, Y+4	; 0x04
    298a:	c8 1a       	sub	r12, r24
    298c:	d9 0a       	sbc	r13, r25
    298e:	91 e0       	ldi	r25, 0x01	; 1
    2990:	c9 1a       	sub	r12, r25
    2992:	d1 08       	sbc	r13, r1
    2994:	24 e0       	ldi	r18, 0x04	; 4
    2996:	4b 81       	ldd	r20, Y+3	; 0x03
    2998:	5c 81       	ldd	r21, Y+4	; 0x04
    299a:	b6 01       	movw	r22, r12
    299c:	c5 01       	movw	r24, r10
    299e:	0e 94 ce 11 	call	0x239c	; 0x239c <ssd1306_draw_circle_helper>
    29a2:	28 e0       	ldi	r18, 0x08	; 8
    29a4:	4b 81       	ldd	r20, Y+3	; 0x03
    29a6:	5c 81       	ldd	r21, Y+4	; 0x04
    29a8:	b6 01       	movw	r22, r12
    29aa:	c4 01       	movw	r24, r8
    29ac:	0e 94 ce 11 	call	0x239c	; 0x239c <ssd1306_draw_circle_helper>
    29b0:	0f 90       	pop	r0
    29b2:	0f 90       	pop	r0
    29b4:	0f 90       	pop	r0
    29b6:	0f 90       	pop	r0
    29b8:	df 91       	pop	r29
    29ba:	cf 91       	pop	r28
    29bc:	1f 91       	pop	r17
    29be:	0f 91       	pop	r16
    29c0:	ff 90       	pop	r15
    29c2:	ef 90       	pop	r14
    29c4:	df 90       	pop	r13
    29c6:	cf 90       	pop	r12
    29c8:	bf 90       	pop	r11
    29ca:	af 90       	pop	r10
    29cc:	9f 90       	pop	r9
    29ce:	8f 90       	pop	r8
    29d0:	7f 90       	pop	r7
    29d2:	6f 90       	pop	r6
    29d4:	5f 90       	pop	r5
    29d6:	4f 90       	pop	r4
    29d8:	3f 90       	pop	r3
    29da:	2f 90       	pop	r2
    29dc:	08 95       	ret

000029de <ssd1306_fill_round_rect>:
    29de:	2f 92       	push	r2
    29e0:	3f 92       	push	r3
    29e2:	4f 92       	push	r4
    29e4:	5f 92       	push	r5
    29e6:	6f 92       	push	r6
    29e8:	7f 92       	push	r7
    29ea:	8f 92       	push	r8
    29ec:	9f 92       	push	r9
    29ee:	af 92       	push	r10
    29f0:	bf 92       	push	r11
    29f2:	cf 92       	push	r12
    29f4:	df 92       	push	r13
    29f6:	ef 92       	push	r14
    29f8:	ff 92       	push	r15
    29fa:	0f 93       	push	r16
    29fc:	1f 93       	push	r17
    29fe:	cf 93       	push	r28
    2a00:	df 93       	push	r29
    2a02:	1c 01       	movw	r2, r24
    2a04:	5b 01       	movw	r10, r22
    2a06:	2a 01       	movw	r4, r20
    2a08:	e9 01       	movw	r28, r18
    2a0a:	68 01       	movw	r12, r16
    2a0c:	37 01       	movw	r6, r14
    2a0e:	78 01       	movw	r14, r16
    2a10:	ee 0c       	add	r14, r14
    2a12:	ff 1c       	adc	r15, r15
    2a14:	48 01       	movw	r8, r16
    2a16:	82 0c       	add	r8, r2
    2a18:	93 1c       	adc	r9, r3
    2a1a:	4e 19       	sub	r20, r14
    2a1c:	5f 09       	sbc	r21, r15
    2a1e:	83 01       	movw	r16, r6
    2a20:	c4 01       	movw	r24, r8
    2a22:	0e 94 1f 14 	call	0x283e	; 0x283e <ssd1306_fill_rect>
    2a26:	ce 19       	sub	r28, r14
    2a28:	df 09       	sbc	r29, r15
    2a2a:	21 97       	sbiw	r28, 0x01	; 1
    2a2c:	ac 0c       	add	r10, r12
    2a2e:	bd 1c       	adc	r11, r13
    2a30:	42 0c       	add	r4, r2
    2a32:	53 1c       	adc	r5, r3
    2a34:	c2 01       	movw	r24, r4
    2a36:	8c 19       	sub	r24, r12
    2a38:	9d 09       	sbc	r25, r13
    2a3a:	73 01       	movw	r14, r6
    2a3c:	8e 01       	movw	r16, r28
    2a3e:	21 e0       	ldi	r18, 0x01	; 1
    2a40:	a6 01       	movw	r20, r12
    2a42:	b5 01       	movw	r22, r10
    2a44:	01 97       	sbiw	r24, 0x01	; 1
    2a46:	0e 94 74 12 	call	0x24e8	; 0x24e8 <ssd1306_fill_circle_helper>
    2a4a:	22 e0       	ldi	r18, 0x02	; 2
    2a4c:	a6 01       	movw	r20, r12
    2a4e:	b5 01       	movw	r22, r10
    2a50:	c4 01       	movw	r24, r8
    2a52:	0e 94 74 12 	call	0x24e8	; 0x24e8 <ssd1306_fill_circle_helper>
    2a56:	df 91       	pop	r29
    2a58:	cf 91       	pop	r28
    2a5a:	1f 91       	pop	r17
    2a5c:	0f 91       	pop	r16
    2a5e:	ff 90       	pop	r15
    2a60:	ef 90       	pop	r14
    2a62:	df 90       	pop	r13
    2a64:	cf 90       	pop	r12
    2a66:	bf 90       	pop	r11
    2a68:	af 90       	pop	r10
    2a6a:	9f 90       	pop	r9
    2a6c:	8f 90       	pop	r8
    2a6e:	7f 90       	pop	r7
    2a70:	6f 90       	pop	r6
    2a72:	5f 90       	pop	r5
    2a74:	4f 90       	pop	r4
    2a76:	3f 90       	pop	r3
    2a78:	2f 90       	pop	r2
    2a7a:	08 95       	ret

00002a7c <ssd1306_draw_triangle>:
    2a7c:	4f 92       	push	r4
    2a7e:	5f 92       	push	r5
    2a80:	6f 92       	push	r6
    2a82:	7f 92       	push	r7
    2a84:	8f 92       	push	r8
    2a86:	9f 92       	push	r9
    2a88:	af 92       	push	r10
    2a8a:	bf 92       	push	r11
    2a8c:	cf 92       	push	r12
    2a8e:	df 92       	push	r13
    2a90:	ef 92       	push	r14
    2a92:	ff 92       	push	r15
    2a94:	0f 93       	push	r16
    2a96:	1f 93       	push	r17
    2a98:	cf 93       	push	r28
    2a9a:	df 93       	push	r29
    2a9c:	5c 01       	movw	r10, r24
    2a9e:	4b 01       	movw	r8, r22
    2aa0:	3a 01       	movw	r6, r20
    2aa2:	29 01       	movw	r4, r18
    2aa4:	d0 2f       	mov	r29, r16
    2aa6:	c1 2f       	mov	r28, r17
    2aa8:	86 01       	movw	r16, r12
    2aaa:	0e 94 48 13 	call	0x2690	; 0x2690 <ssd1306_draw_line>
    2aae:	97 01       	movw	r18, r14
    2ab0:	4d 2f       	mov	r20, r29
    2ab2:	5c 2f       	mov	r21, r28
    2ab4:	b2 01       	movw	r22, r4
    2ab6:	c3 01       	movw	r24, r6
    2ab8:	0e 94 48 13 	call	0x2690	; 0x2690 <ssd1306_draw_line>
    2abc:	94 01       	movw	r18, r8
    2abe:	a5 01       	movw	r20, r10
    2ac0:	b7 01       	movw	r22, r14
    2ac2:	8d 2f       	mov	r24, r29
    2ac4:	9c 2f       	mov	r25, r28
    2ac6:	0e 94 48 13 	call	0x2690	; 0x2690 <ssd1306_draw_line>
    2aca:	df 91       	pop	r29
    2acc:	cf 91       	pop	r28
    2ace:	1f 91       	pop	r17
    2ad0:	0f 91       	pop	r16
    2ad2:	ff 90       	pop	r15
    2ad4:	ef 90       	pop	r14
    2ad6:	df 90       	pop	r13
    2ad8:	cf 90       	pop	r12
    2ada:	bf 90       	pop	r11
    2adc:	af 90       	pop	r10
    2ade:	9f 90       	pop	r9
    2ae0:	8f 90       	pop	r8
    2ae2:	7f 90       	pop	r7
    2ae4:	6f 90       	pop	r6
    2ae6:	5f 90       	pop	r5
    2ae8:	4f 90       	pop	r4
    2aea:	08 95       	ret

00002aec <ssd1306_fill_triangle>:
    2aec:	2f 92       	push	r2
    2aee:	3f 92       	push	r3
    2af0:	4f 92       	push	r4
    2af2:	5f 92       	push	r5
    2af4:	6f 92       	push	r6
    2af6:	7f 92       	push	r7
    2af8:	8f 92       	push	r8
    2afa:	9f 92       	push	r9
    2afc:	af 92       	push	r10
    2afe:	bf 92       	push	r11
    2b00:	cf 92       	push	r12
    2b02:	df 92       	push	r13
    2b04:	ef 92       	push	r14
    2b06:	ff 92       	push	r15
    2b08:	0f 93       	push	r16
    2b0a:	1f 93       	push	r17
    2b0c:	cf 93       	push	r28
    2b0e:	df 93       	push	r29
    2b10:	cd b7       	in	r28, 0x3d	; 61
    2b12:	de b7       	in	r29, 0x3e	; 62
    2b14:	a8 97       	sbiw	r28, 0x28	; 40
    2b16:	0f b6       	in	r0, 0x3f	; 63
    2b18:	f8 94       	cli
    2b1a:	de bf       	out	0x3e, r29	; 62
    2b1c:	0f be       	out	0x3f, r0	; 63
    2b1e:	cd bf       	out	0x3d, r28	; 61
    2b20:	5c 01       	movw	r10, r24
    2b22:	6f a3       	std	Y+39, r22	; 0x27
    2b24:	78 a7       	std	Y+40, r23	; 0x28
    2b26:	4a 01       	movw	r8, r20
    2b28:	39 01       	movw	r6, r18
    2b2a:	c8 01       	movw	r24, r16
    2b2c:	87 01       	movw	r16, r14
    2b2e:	2f a1       	ldd	r18, Y+39	; 0x27
    2b30:	38 a5       	ldd	r19, Y+40	; 0x28
    2b32:	62 16       	cp	r6, r18
    2b34:	73 06       	cpc	r7, r19
    2b36:	0c f0       	brlt	.+2      	; 0x2b3a <ssd1306_fill_triangle+0x4e>
    2b38:	be c1       	rjmp	.+892    	; 0x2eb6 <ssd1306_fill_triangle+0x3ca>
    2b3a:	e2 16       	cp	r14, r18
    2b3c:	f3 06       	cpc	r15, r19
    2b3e:	0c f4       	brge	.+2      	; 0x2b42 <ssd1306_fill_triangle+0x56>
    2b40:	c9 c1       	rjmp	.+914    	; 0x2ed4 <ssd1306_fill_triangle+0x3e8>
    2b42:	3f a1       	ldd	r19, Y+39	; 0x27
    2b44:	28 a5       	ldd	r18, Y+40	; 0x28
    2b46:	78 a6       	std	Y+40, r7	; 0x28
    2b48:	6f a2       	std	Y+39, r6	; 0x27
    2b4a:	63 2e       	mov	r6, r19
    2b4c:	72 2e       	mov	r7, r18
    2b4e:	3a 2d       	mov	r19, r10
    2b50:	2b 2d       	mov	r18, r11
    2b52:	54 01       	movw	r10, r8
    2b54:	83 2e       	mov	r8, r19
    2b56:	92 2e       	mov	r9, r18
    2b58:	4f a1       	ldd	r20, Y+39	; 0x27
    2b5a:	58 a5       	ldd	r21, Y+40	; 0x28
    2b5c:	40 17       	cp	r20, r16
    2b5e:	51 07       	cpc	r21, r17
    2b60:	c9 f5       	brne	.+114    	; 0x2bd4 <ssd1306_fill_triangle+0xe8>
    2b62:	8a 14       	cp	r8, r10
    2b64:	9b 04       	cpc	r9, r11
    2b66:	2c f4       	brge	.+10     	; 0x2b72 <ssd1306_fill_triangle+0x86>
    2b68:	3a 2d       	mov	r19, r10
    2b6a:	2b 2d       	mov	r18, r11
    2b6c:	54 01       	movw	r10, r8
    2b6e:	83 2e       	mov	r8, r19
    2b70:	92 2e       	mov	r9, r18
    2b72:	8a 15       	cp	r24, r10
    2b74:	9b 05       	cpc	r25, r11
    2b76:	2c f0       	brlt	.+10     	; 0x2b82 <ssd1306_fill_triangle+0x96>
    2b78:	88 16       	cp	r8, r24
    2b7a:	99 06       	cpc	r9, r25
    2b7c:	0c f4       	brge	.+2      	; 0x2b80 <ssd1306_fill_triangle+0x94>
    2b7e:	4c 01       	movw	r8, r24
    2b80:	c5 01       	movw	r24, r10
    2b82:	a4 01       	movw	r20, r8
    2b84:	48 1b       	sub	r20, r24
    2b86:	59 0b       	sbc	r21, r25
    2b88:	4f 5f       	subi	r20, 0xFF	; 255
    2b8a:	5f 4f       	sbci	r21, 0xFF	; 255
    2b8c:	96 01       	movw	r18, r12
    2b8e:	6f a1       	ldd	r22, Y+39	; 0x27
    2b90:	78 a5       	ldd	r23, Y+40	; 0x28
    2b92:	a8 96       	adiw	r28, 0x28	; 40
    2b94:	0f b6       	in	r0, 0x3f	; 63
    2b96:	f8 94       	cli
    2b98:	de bf       	out	0x3e, r29	; 62
    2b9a:	0f be       	out	0x3f, r0	; 63
    2b9c:	cd bf       	out	0x3d, r28	; 61
    2b9e:	df 91       	pop	r29
    2ba0:	cf 91       	pop	r28
    2ba2:	1f 91       	pop	r17
    2ba4:	0f 91       	pop	r16
    2ba6:	ff 90       	pop	r15
    2ba8:	ef 90       	pop	r14
    2baa:	df 90       	pop	r13
    2bac:	cf 90       	pop	r12
    2bae:	bf 90       	pop	r11
    2bb0:	af 90       	pop	r10
    2bb2:	9f 90       	pop	r9
    2bb4:	8f 90       	pop	r8
    2bb6:	7f 90       	pop	r7
    2bb8:	6f 90       	pop	r6
    2bba:	5f 90       	pop	r5
    2bbc:	4f 90       	pop	r4
    2bbe:	3f 90       	pop	r3
    2bc0:	2f 90       	pop	r2
    2bc2:	0c 94 8c 10 	jmp	0x2118	; 0x2118 <ssd1306_draw_fast_hline>
    2bc6:	03 2f       	mov	r16, r19
    2bc8:	12 2f       	mov	r17, r18
    2bca:	3a 2d       	mov	r19, r10
    2bcc:	2b 2d       	mov	r18, r11
    2bce:	5c 01       	movw	r10, r24
    2bd0:	83 2f       	mov	r24, r19
    2bd2:	92 2f       	mov	r25, r18
    2bd4:	94 01       	movw	r18, r8
    2bd6:	2a 19       	sub	r18, r10
    2bd8:	3b 09       	sbc	r19, r11
    2bda:	a3 01       	movw	r20, r6
    2bdc:	6f a1       	ldd	r22, Y+39	; 0x27
    2bde:	78 a5       	ldd	r23, Y+40	; 0x28
    2be0:	46 1b       	sub	r20, r22
    2be2:	57 0b       	sbc	r21, r23
    2be4:	dc 01       	movw	r26, r24
    2be6:	aa 19       	sub	r26, r10
    2be8:	bb 09       	sbc	r27, r11
    2bea:	ba 87       	std	Y+10, r27	; 0x0a
    2bec:	a9 87       	std	Y+9, r26	; 0x09
    2bee:	f8 01       	movw	r30, r16
    2bf0:	e6 1b       	sub	r30, r22
    2bf2:	f7 0b       	sbc	r31, r23
    2bf4:	fe 8b       	std	Y+22, r31	; 0x16
    2bf6:	ed 8b       	std	Y+21, r30	; 0x15
    2bf8:	bc 01       	movw	r22, r24
    2bfa:	68 19       	sub	r22, r8
    2bfc:	79 09       	sbc	r23, r9
    2bfe:	7e 87       	std	Y+14, r23	; 0x0e
    2c00:	6d 87       	std	Y+13, r22	; 0x0d
    2c02:	c8 01       	movw	r24, r16
    2c04:	86 19       	sub	r24, r6
    2c06:	97 09       	sbc	r25, r7
    2c08:	9a 8b       	std	Y+18, r25	; 0x12
    2c0a:	89 8b       	std	Y+17, r24	; 0x11
    2c0c:	13 01       	movw	r2, r6
    2c0e:	91 e0       	ldi	r25, 0x01	; 1
    2c10:	29 1a       	sub	r2, r25
    2c12:	31 08       	sbc	r3, r1
    2c14:	06 15       	cp	r16, r6
    2c16:	17 05       	cpc	r17, r7
    2c18:	09 f4       	brne	.+2      	; 0x2c1c <ssd1306_fill_triangle+0x130>
    2c1a:	18 01       	movw	r2, r16
    2c1c:	4f a0       	ldd	r4, Y+39	; 0x27
    2c1e:	58 a4       	ldd	r5, Y+40	; 0x28
    2c20:	1d 82       	std	Y+5, r1	; 0x05
    2c22:	1e 82       	std	Y+6, r1	; 0x06
    2c24:	1f 82       	std	Y+7, r1	; 0x07
    2c26:	18 86       	std	Y+8, r1	; 0x08
    2c28:	19 82       	std	Y+1, r1	; 0x01
    2c2a:	1a 82       	std	Y+2, r1	; 0x02
    2c2c:	1b 82       	std	Y+3, r1	; 0x03
    2c2e:	1c 82       	std	Y+4, r1	; 0x04
    2c30:	ba 01       	movw	r22, r20
    2c32:	55 0f       	add	r21, r21
    2c34:	88 0b       	sbc	r24, r24
    2c36:	99 0b       	sbc	r25, r25
    2c38:	6f 8b       	std	Y+23, r22	; 0x17
    2c3a:	78 8f       	std	Y+24, r23	; 0x18
    2c3c:	89 8f       	std	Y+25, r24	; 0x19
    2c3e:	9a 8f       	std	Y+26, r25	; 0x1a
    2c40:	8d 89       	ldd	r24, Y+21	; 0x15
    2c42:	9e 89       	ldd	r25, Y+22	; 0x16
    2c44:	09 2e       	mov	r0, r25
    2c46:	00 0c       	add	r0, r0
    2c48:	aa 0b       	sbc	r26, r26
    2c4a:	bb 0b       	sbc	r27, r27
    2c4c:	8b 8f       	std	Y+27, r24	; 0x1b
    2c4e:	9c 8f       	std	Y+28, r25	; 0x1c
    2c50:	ad 8f       	std	Y+29, r26	; 0x1d
    2c52:	be 8f       	std	Y+30, r27	; 0x1e
    2c54:	a9 01       	movw	r20, r18
    2c56:	33 0f       	add	r19, r19
    2c58:	66 0b       	sbc	r22, r22
    2c5a:	77 0b       	sbc	r23, r23
    2c5c:	4f 8f       	std	Y+31, r20	; 0x1f
    2c5e:	58 a3       	std	Y+32, r21	; 0x20
    2c60:	69 a3       	std	Y+33, r22	; 0x21
    2c62:	7a a3       	std	Y+34, r23	; 0x22
    2c64:	69 85       	ldd	r22, Y+9	; 0x09
    2c66:	7a 85       	ldd	r23, Y+10	; 0x0a
    2c68:	07 2e       	mov	r0, r23
    2c6a:	00 0c       	add	r0, r0
    2c6c:	88 0b       	sbc	r24, r24
    2c6e:	99 0b       	sbc	r25, r25
    2c70:	6b a3       	std	Y+35, r22	; 0x23
    2c72:	7c a3       	std	Y+36, r23	; 0x24
    2c74:	8d a3       	std	Y+37, r24	; 0x25
    2c76:	9e a3       	std	Y+38, r25	; 0x26
    2c78:	24 14       	cp	r2, r4
    2c7a:	35 04       	cpc	r3, r5
    2c7c:	0c f0       	brlt	.+2      	; 0x2c80 <ssd1306_fill_triangle+0x194>
    2c7e:	79 c0       	rjmp	.+242    	; 0x2d72 <ssd1306_fill_triangle+0x286>
    2c80:	c1 01       	movw	r24, r2
    2c82:	01 96       	adiw	r24, 0x01	; 1
    2c84:	6f a1       	ldd	r22, Y+39	; 0x27
    2c86:	78 a5       	ldd	r23, Y+40	; 0x28
    2c88:	86 17       	cp	r24, r22
    2c8a:	97 07       	cpc	r25, r23
    2c8c:	0c f4       	brge	.+2      	; 0x2c90 <ssd1306_fill_triangle+0x1a4>
    2c8e:	c0 c0       	rjmp	.+384    	; 0x2e10 <ssd1306_fill_triangle+0x324>
    2c90:	c1 01       	movw	r24, r2
    2c92:	86 1b       	sub	r24, r22
    2c94:	97 0b       	sbc	r25, r23
    2c96:	01 96       	adiw	r24, 0x01	; 1
    2c98:	af a1       	ldd	r26, Y+39	; 0x27
    2c9a:	b8 a5       	ldd	r27, Y+40	; 0x28
    2c9c:	a8 0f       	add	r26, r24
    2c9e:	b9 1f       	adc	r27, r25
    2ca0:	b8 8f       	std	Y+24, r27	; 0x18
    2ca2:	af 8b       	std	Y+23, r26	; 0x17
    2ca4:	ad 01       	movw	r20, r26
    2ca6:	46 19       	sub	r20, r6
    2ca8:	57 09       	sbc	r21, r7
    2caa:	ed 85       	ldd	r30, Y+13	; 0x0d
    2cac:	fe 85       	ldd	r31, Y+14	; 0x0e
    2cae:	4e 9f       	mul	r20, r30
    2cb0:	90 01       	movw	r18, r0
    2cb2:	4f 9f       	mul	r20, r31
    2cb4:	30 0d       	add	r19, r0
    2cb6:	5e 9f       	mul	r21, r30
    2cb8:	30 0d       	add	r19, r0
    2cba:	11 24       	eor	r1, r1
    2cbc:	a9 01       	movw	r20, r18
    2cbe:	33 0f       	add	r19, r19
    2cc0:	66 0b       	sbc	r22, r22
    2cc2:	77 0b       	sbc	r23, r23
    2cc4:	49 83       	std	Y+1, r20	; 0x01
    2cc6:	5a 83       	std	Y+2, r21	; 0x02
    2cc8:	6b 83       	std	Y+3, r22	; 0x03
    2cca:	7c 83       	std	Y+4, r23	; 0x04
    2ccc:	69 85       	ldd	r22, Y+9	; 0x09
    2cce:	7a 85       	ldd	r23, Y+10	; 0x0a
    2cd0:	68 9f       	mul	r22, r24
    2cd2:	90 01       	movw	r18, r0
    2cd4:	69 9f       	mul	r22, r25
    2cd6:	30 0d       	add	r19, r0
    2cd8:	78 9f       	mul	r23, r24
    2cda:	30 0d       	add	r19, r0
    2cdc:	11 24       	eor	r1, r1
    2cde:	c9 01       	movw	r24, r18
    2ce0:	33 0f       	add	r19, r19
    2ce2:	aa 0b       	sbc	r26, r26
    2ce4:	bb 0b       	sbc	r27, r27
    2ce6:	8d 83       	std	Y+5, r24	; 0x05
    2ce8:	9e 83       	std	Y+6, r25	; 0x06
    2cea:	af 83       	std	Y+7, r26	; 0x07
    2cec:	b8 87       	std	Y+8, r27	; 0x08
    2cee:	29 89       	ldd	r18, Y+17	; 0x11
    2cf0:	3a 89       	ldd	r19, Y+18	; 0x12
    2cf2:	03 2e       	mov	r0, r19
    2cf4:	00 0c       	add	r0, r0
    2cf6:	44 0b       	sbc	r20, r20
    2cf8:	55 0b       	sbc	r21, r21
    2cfa:	29 8b       	std	Y+17, r18	; 0x11
    2cfc:	3a 8b       	std	Y+18, r19	; 0x12
    2cfe:	4b 8b       	std	Y+19, r20	; 0x13
    2d00:	5c 8b       	std	Y+20, r21	; 0x14
    2d02:	4d 89       	ldd	r20, Y+21	; 0x15
    2d04:	5e 89       	ldd	r21, Y+22	; 0x16
    2d06:	2a 01       	movw	r4, r20
    2d08:	55 0f       	add	r21, r21
    2d0a:	66 08       	sbc	r6, r6
    2d0c:	77 08       	sbc	r7, r7
    2d0e:	bf 01       	movw	r22, r30
    2d10:	07 2e       	mov	r0, r23
    2d12:	00 0c       	add	r0, r0
    2d14:	88 0b       	sbc	r24, r24
    2d16:	99 0b       	sbc	r25, r25
    2d18:	6d 87       	std	Y+13, r22	; 0x0d
    2d1a:	7e 87       	std	Y+14, r23	; 0x0e
    2d1c:	8f 87       	std	Y+15, r24	; 0x0f
    2d1e:	98 8b       	std	Y+16, r25	; 0x10
    2d20:	89 85       	ldd	r24, Y+9	; 0x09
    2d22:	9a 85       	ldd	r25, Y+10	; 0x0a
    2d24:	09 2e       	mov	r0, r25
    2d26:	00 0c       	add	r0, r0
    2d28:	aa 0b       	sbc	r26, r26
    2d2a:	bb 0b       	sbc	r27, r27
    2d2c:	89 87       	std	Y+9, r24	; 0x09
    2d2e:	9a 87       	std	Y+10, r25	; 0x0a
    2d30:	ab 87       	std	Y+11, r26	; 0x0b
    2d32:	bc 87       	std	Y+12, r27	; 0x0c
    2d34:	ef 89       	ldd	r30, Y+23	; 0x17
    2d36:	f8 8d       	ldd	r31, Y+24	; 0x18
    2d38:	0e 17       	cp	r16, r30
    2d3a:	1f 07       	cpc	r17, r31
    2d3c:	0c f0       	brlt	.+2      	; 0x2d40 <ssd1306_fill_triangle+0x254>
    2d3e:	6b c0       	rjmp	.+214    	; 0x2e16 <ssd1306_fill_triangle+0x32a>
    2d40:	a8 96       	adiw	r28, 0x28	; 40
    2d42:	0f b6       	in	r0, 0x3f	; 63
    2d44:	f8 94       	cli
    2d46:	de bf       	out	0x3e, r29	; 62
    2d48:	0f be       	out	0x3f, r0	; 63
    2d4a:	cd bf       	out	0x3d, r28	; 61
    2d4c:	df 91       	pop	r29
    2d4e:	cf 91       	pop	r28
    2d50:	1f 91       	pop	r17
    2d52:	0f 91       	pop	r16
    2d54:	ff 90       	pop	r15
    2d56:	ef 90       	pop	r14
    2d58:	df 90       	pop	r13
    2d5a:	cf 90       	pop	r12
    2d5c:	bf 90       	pop	r11
    2d5e:	af 90       	pop	r10
    2d60:	9f 90       	pop	r9
    2d62:	8f 90       	pop	r8
    2d64:	7f 90       	pop	r7
    2d66:	6f 90       	pop	r6
    2d68:	5f 90       	pop	r5
    2d6a:	4f 90       	pop	r4
    2d6c:	3f 90       	pop	r3
    2d6e:	2f 90       	pop	r2
    2d70:	08 95       	ret
    2d72:	69 81       	ldd	r22, Y+1	; 0x01
    2d74:	7a 81       	ldd	r23, Y+2	; 0x02
    2d76:	8b 81       	ldd	r24, Y+3	; 0x03
    2d78:	9c 81       	ldd	r25, Y+4	; 0x04
    2d7a:	2f 89       	ldd	r18, Y+23	; 0x17
    2d7c:	38 8d       	ldd	r19, Y+24	; 0x18
    2d7e:	49 8d       	ldd	r20, Y+25	; 0x19
    2d80:	5a 8d       	ldd	r21, Y+26	; 0x1a
    2d82:	0e 94 16 21 	call	0x422c	; 0x422c <__divmodsi4>
    2d86:	75 01       	movw	r14, r10
    2d88:	e2 0e       	add	r14, r18
    2d8a:	f3 1e       	adc	r15, r19
    2d8c:	6d 81       	ldd	r22, Y+5	; 0x05
    2d8e:	7e 81       	ldd	r23, Y+6	; 0x06
    2d90:	8f 81       	ldd	r24, Y+7	; 0x07
    2d92:	98 85       	ldd	r25, Y+8	; 0x08
    2d94:	2b 8d       	ldd	r18, Y+27	; 0x1b
    2d96:	3c 8d       	ldd	r19, Y+28	; 0x1c
    2d98:	4d 8d       	ldd	r20, Y+29	; 0x1d
    2d9a:	5e 8d       	ldd	r21, Y+30	; 0x1e
    2d9c:	0e 94 16 21 	call	0x422c	; 0x422c <__divmodsi4>
    2da0:	2a 0d       	add	r18, r10
    2da2:	3b 1d       	adc	r19, r11
    2da4:	89 81       	ldd	r24, Y+1	; 0x01
    2da6:	9a 81       	ldd	r25, Y+2	; 0x02
    2da8:	ab 81       	ldd	r26, Y+3	; 0x03
    2daa:	bc 81       	ldd	r27, Y+4	; 0x04
    2dac:	4f 8d       	ldd	r20, Y+31	; 0x1f
    2dae:	58 a1       	ldd	r21, Y+32	; 0x20
    2db0:	69 a1       	ldd	r22, Y+33	; 0x21
    2db2:	7a a1       	ldd	r23, Y+34	; 0x22
    2db4:	84 0f       	add	r24, r20
    2db6:	95 1f       	adc	r25, r21
    2db8:	a6 1f       	adc	r26, r22
    2dba:	b7 1f       	adc	r27, r23
    2dbc:	89 83       	std	Y+1, r24	; 0x01
    2dbe:	9a 83       	std	Y+2, r25	; 0x02
    2dc0:	ab 83       	std	Y+3, r26	; 0x03
    2dc2:	bc 83       	std	Y+4, r27	; 0x04
    2dc4:	8d 81       	ldd	r24, Y+5	; 0x05
    2dc6:	9e 81       	ldd	r25, Y+6	; 0x06
    2dc8:	af 81       	ldd	r26, Y+7	; 0x07
    2dca:	b8 85       	ldd	r27, Y+8	; 0x08
    2dcc:	4b a1       	ldd	r20, Y+35	; 0x23
    2dce:	5c a1       	ldd	r21, Y+36	; 0x24
    2dd0:	6d a1       	ldd	r22, Y+37	; 0x25
    2dd2:	7e a1       	ldd	r23, Y+38	; 0x26
    2dd4:	84 0f       	add	r24, r20
    2dd6:	95 1f       	adc	r25, r21
    2dd8:	a6 1f       	adc	r26, r22
    2dda:	b7 1f       	adc	r27, r23
    2ddc:	8d 83       	std	Y+5, r24	; 0x05
    2dde:	9e 83       	std	Y+6, r25	; 0x06
    2de0:	af 83       	std	Y+7, r26	; 0x07
    2de2:	b8 87       	std	Y+8, r27	; 0x08
    2de4:	2e 15       	cp	r18, r14
    2de6:	3f 05       	cpc	r19, r15
    2de8:	2c f4       	brge	.+10     	; 0x2df4 <ssd1306_fill_triangle+0x308>
    2dea:	9e 2d       	mov	r25, r14
    2dec:	8f 2d       	mov	r24, r15
    2dee:	79 01       	movw	r14, r18
    2df0:	29 2f       	mov	r18, r25
    2df2:	38 2f       	mov	r19, r24
    2df4:	2e 19       	sub	r18, r14
    2df6:	3f 09       	sbc	r19, r15
    2df8:	a9 01       	movw	r20, r18
    2dfa:	4f 5f       	subi	r20, 0xFF	; 255
    2dfc:	5f 4f       	sbci	r21, 0xFF	; 255
    2dfe:	96 01       	movw	r18, r12
    2e00:	b2 01       	movw	r22, r4
    2e02:	c7 01       	movw	r24, r14
    2e04:	0e 94 8c 10 	call	0x2118	; 0x2118 <ssd1306_draw_fast_hline>
    2e08:	5f ef       	ldi	r21, 0xFF	; 255
    2e0a:	45 1a       	sub	r4, r21
    2e0c:	55 0a       	sbc	r5, r21
    2e0e:	34 cf       	rjmp	.-408    	; 0x2c78 <ssd1306_fill_triangle+0x18c>
    2e10:	90 e0       	ldi	r25, 0x00	; 0
    2e12:	80 e0       	ldi	r24, 0x00	; 0
    2e14:	41 cf       	rjmp	.-382    	; 0x2c98 <ssd1306_fill_triangle+0x1ac>
    2e16:	69 81       	ldd	r22, Y+1	; 0x01
    2e18:	7a 81       	ldd	r23, Y+2	; 0x02
    2e1a:	8b 81       	ldd	r24, Y+3	; 0x03
    2e1c:	9c 81       	ldd	r25, Y+4	; 0x04
    2e1e:	29 89       	ldd	r18, Y+17	; 0x11
    2e20:	3a 89       	ldd	r19, Y+18	; 0x12
    2e22:	4b 89       	ldd	r20, Y+19	; 0x13
    2e24:	5c 89       	ldd	r21, Y+20	; 0x14
    2e26:	0e 94 16 21 	call	0x422c	; 0x422c <__divmodsi4>
    2e2a:	74 01       	movw	r14, r8
    2e2c:	e2 0e       	add	r14, r18
    2e2e:	f3 1e       	adc	r15, r19
    2e30:	6d 81       	ldd	r22, Y+5	; 0x05
    2e32:	7e 81       	ldd	r23, Y+6	; 0x06
    2e34:	8f 81       	ldd	r24, Y+7	; 0x07
    2e36:	98 85       	ldd	r25, Y+8	; 0x08
    2e38:	a3 01       	movw	r20, r6
    2e3a:	92 01       	movw	r18, r4
    2e3c:	0e 94 16 21 	call	0x422c	; 0x422c <__divmodsi4>
    2e40:	2a 0d       	add	r18, r10
    2e42:	3b 1d       	adc	r19, r11
    2e44:	49 81       	ldd	r20, Y+1	; 0x01
    2e46:	5a 81       	ldd	r21, Y+2	; 0x02
    2e48:	6b 81       	ldd	r22, Y+3	; 0x03
    2e4a:	7c 81       	ldd	r23, Y+4	; 0x04
    2e4c:	8d 85       	ldd	r24, Y+13	; 0x0d
    2e4e:	9e 85       	ldd	r25, Y+14	; 0x0e
    2e50:	af 85       	ldd	r26, Y+15	; 0x0f
    2e52:	b8 89       	ldd	r27, Y+16	; 0x10
    2e54:	48 0f       	add	r20, r24
    2e56:	59 1f       	adc	r21, r25
    2e58:	6a 1f       	adc	r22, r26
    2e5a:	7b 1f       	adc	r23, r27
    2e5c:	49 83       	std	Y+1, r20	; 0x01
    2e5e:	5a 83       	std	Y+2, r21	; 0x02
    2e60:	6b 83       	std	Y+3, r22	; 0x03
    2e62:	7c 83       	std	Y+4, r23	; 0x04
    2e64:	4d 81       	ldd	r20, Y+5	; 0x05
    2e66:	5e 81       	ldd	r21, Y+6	; 0x06
    2e68:	6f 81       	ldd	r22, Y+7	; 0x07
    2e6a:	78 85       	ldd	r23, Y+8	; 0x08
    2e6c:	89 85       	ldd	r24, Y+9	; 0x09
    2e6e:	9a 85       	ldd	r25, Y+10	; 0x0a
    2e70:	ab 85       	ldd	r26, Y+11	; 0x0b
    2e72:	bc 85       	ldd	r27, Y+12	; 0x0c
    2e74:	48 0f       	add	r20, r24
    2e76:	59 1f       	adc	r21, r25
    2e78:	6a 1f       	adc	r22, r26
    2e7a:	7b 1f       	adc	r23, r27
    2e7c:	4d 83       	std	Y+5, r20	; 0x05
    2e7e:	5e 83       	std	Y+6, r21	; 0x06
    2e80:	6f 83       	std	Y+7, r22	; 0x07
    2e82:	78 87       	std	Y+8, r23	; 0x08
    2e84:	2e 15       	cp	r18, r14
    2e86:	3f 05       	cpc	r19, r15
    2e88:	2c f4       	brge	.+10     	; 0x2e94 <ssd1306_fill_triangle+0x3a8>
    2e8a:	9e 2d       	mov	r25, r14
    2e8c:	8f 2d       	mov	r24, r15
    2e8e:	79 01       	movw	r14, r18
    2e90:	29 2f       	mov	r18, r25
    2e92:	38 2f       	mov	r19, r24
    2e94:	2e 19       	sub	r18, r14
    2e96:	3f 09       	sbc	r19, r15
    2e98:	a9 01       	movw	r20, r18
    2e9a:	4f 5f       	subi	r20, 0xFF	; 255
    2e9c:	5f 4f       	sbci	r21, 0xFF	; 255
    2e9e:	96 01       	movw	r18, r12
    2ea0:	6f 89       	ldd	r22, Y+23	; 0x17
    2ea2:	78 8d       	ldd	r23, Y+24	; 0x18
    2ea4:	c7 01       	movw	r24, r14
    2ea6:	0e 94 8c 10 	call	0x2118	; 0x2118 <ssd1306_draw_fast_hline>
    2eaa:	af 89       	ldd	r26, Y+23	; 0x17
    2eac:	b8 8d       	ldd	r27, Y+24	; 0x18
    2eae:	11 96       	adiw	r26, 0x01	; 1
    2eb0:	b8 8f       	std	Y+24, r27	; 0x18
    2eb2:	af 8b       	std	Y+23, r26	; 0x17
    2eb4:	3f cf       	rjmp	.-386    	; 0x2d34 <ssd1306_fill_triangle+0x248>
    2eb6:	e6 14       	cp	r14, r6
    2eb8:	f7 04       	cpc	r15, r7
    2eba:	0c f0       	brlt	.+2      	; 0x2ebe <ssd1306_fill_triangle+0x3d2>
    2ebc:	4d ce       	rjmp	.-870    	; 0x2b58 <ssd1306_fill_triangle+0x6c>
    2ebe:	3f a1       	ldd	r19, Y+39	; 0x27
    2ec0:	28 a5       	ldd	r18, Y+40	; 0x28
    2ec2:	78 a6       	std	Y+40, r7	; 0x28
    2ec4:	6f a2       	std	Y+39, r6	; 0x27
    2ec6:	63 2e       	mov	r6, r19
    2ec8:	72 2e       	mov	r7, r18
    2eca:	3a 2d       	mov	r19, r10
    2ecc:	2b 2d       	mov	r18, r11
    2ece:	54 01       	movw	r10, r8
    2ed0:	83 2e       	mov	r8, r19
    2ed2:	92 2e       	mov	r9, r18
    2ed4:	3f a1       	ldd	r19, Y+39	; 0x27
    2ed6:	28 a5       	ldd	r18, Y+40	; 0x28
    2ed8:	18 a7       	std	Y+40, r17	; 0x28
    2eda:	0f a3       	std	Y+39, r16	; 0x27
    2edc:	06 15       	cp	r16, r6
    2ede:	17 05       	cpc	r17, r7
    2ee0:	0c f4       	brge	.+2      	; 0x2ee4 <ssd1306_fill_triangle+0x3f8>
    2ee2:	71 ce       	rjmp	.-798    	; 0x2bc6 <ssd1306_fill_triangle+0xda>
    2ee4:	03 2f       	mov	r16, r19
    2ee6:	12 2f       	mov	r17, r18
    2ee8:	3a 2d       	mov	r19, r10
    2eea:	2b 2d       	mov	r18, r11
    2eec:	5c 01       	movw	r10, r24
    2eee:	83 2f       	mov	r24, r19
    2ef0:	92 2f       	mov	r25, r18
    2ef2:	27 ce       	rjmp	.-946    	; 0x2b42 <ssd1306_fill_triangle+0x56>

00002ef4 <ssd1306_draw_bitmap>:
    2ef4:	2f 92       	push	r2
    2ef6:	3f 92       	push	r3
    2ef8:	4f 92       	push	r4
    2efa:	5f 92       	push	r5
    2efc:	6f 92       	push	r6
    2efe:	7f 92       	push	r7
    2f00:	8f 92       	push	r8
    2f02:	9f 92       	push	r9
    2f04:	af 92       	push	r10
    2f06:	bf 92       	push	r11
    2f08:	cf 92       	push	r12
    2f0a:	df 92       	push	r13
    2f0c:	ef 92       	push	r14
    2f0e:	ff 92       	push	r15
    2f10:	0f 93       	push	r16
    2f12:	1f 93       	push	r17
    2f14:	cf 93       	push	r28
    2f16:	df 93       	push	r29
    2f18:	00 d0       	rcall	.+0      	; 0x2f1a <ssd1306_draw_bitmap+0x26>
    2f1a:	00 d0       	rcall	.+0      	; 0x2f1c <ssd1306_draw_bitmap+0x28>
    2f1c:	cd b7       	in	r28, 0x3d	; 61
    2f1e:	de b7       	in	r29, 0x3e	; 62
    2f20:	2c 01       	movw	r4, r24
    2f22:	3a 01       	movw	r6, r20
    2f24:	69 01       	movw	r12, r18
    2f26:	48 01       	movw	r8, r16
    2f28:	e9 82       	std	Y+1, r14	; 0x01
    2f2a:	fa 82       	std	Y+2, r15	; 0x02
    2f2c:	8b 01       	movw	r16, r22
    2f2e:	19 01       	movw	r2, r18
    2f30:	27 e0       	ldi	r18, 0x07	; 7
    2f32:	22 0e       	add	r2, r18
    2f34:	31 1c       	adc	r3, r1
    2f36:	37 fe       	sbrs	r3, 7
    2f38:	04 c0       	rjmp	.+8      	; 0x2f42 <ssd1306_draw_bitmap+0x4e>
    2f3a:	16 01       	movw	r2, r12
    2f3c:	3e e0       	ldi	r19, 0x0E	; 14
    2f3e:	23 0e       	add	r2, r19
    2f40:	31 1c       	adc	r3, r1
    2f42:	93 e0       	ldi	r25, 0x03	; 3
    2f44:	35 94       	asr	r3
    2f46:	27 94       	ror	r2
    2f48:	9a 95       	dec	r25
    2f4a:	e1 f7       	brne	.-8      	; 0x2f44 <ssd1306_draw_bitmap+0x50>
    2f4c:	b1 2c       	mov	r11, r1
    2f4e:	a1 2c       	mov	r10, r1
    2f50:	f1 2c       	mov	r15, r1
    2f52:	e1 2c       	mov	r14, r1
    2f54:	e8 14       	cp	r14, r8
    2f56:	f9 04       	cpc	r15, r9
    2f58:	0c f4       	brge	.+2      	; 0x2f5c <ssd1306_draw_bitmap+0x68>
    2f5a:	4f c0       	rjmp	.+158    	; 0x2ffa <ssd1306_draw_bitmap+0x106>
    2f5c:	0f 90       	pop	r0
    2f5e:	0f 90       	pop	r0
    2f60:	0f 90       	pop	r0
    2f62:	0f 90       	pop	r0
    2f64:	df 91       	pop	r29
    2f66:	cf 91       	pop	r28
    2f68:	1f 91       	pop	r17
    2f6a:	0f 91       	pop	r16
    2f6c:	ff 90       	pop	r15
    2f6e:	ef 90       	pop	r14
    2f70:	df 90       	pop	r13
    2f72:	cf 90       	pop	r12
    2f74:	bf 90       	pop	r11
    2f76:	af 90       	pop	r10
    2f78:	9f 90       	pop	r9
    2f7a:	8f 90       	pop	r8
    2f7c:	7f 90       	pop	r7
    2f7e:	6f 90       	pop	r6
    2f80:	5f 90       	pop	r5
    2f82:	4f 90       	pop	r4
    2f84:	3f 90       	pop	r3
    2f86:	2f 90       	pop	r2
    2f88:	08 95       	ret
    2f8a:	eb 81       	ldd	r30, Y+3	; 0x03
    2f8c:	fc 81       	ldd	r31, Y+4	; 0x04
    2f8e:	83 e0       	ldi	r24, 0x03	; 3
    2f90:	f5 95       	asr	r31
    2f92:	e7 95       	ror	r30
    2f94:	8a 95       	dec	r24
    2f96:	e1 f7       	brne	.-8      	; 0x2f90 <ssd1306_draw_bitmap+0x9c>
    2f98:	ea 0d       	add	r30, r10
    2f9a:	fb 1d       	adc	r31, r11
    2f9c:	e6 0d       	add	r30, r6
    2f9e:	f7 1d       	adc	r31, r7
    2fa0:	e4 91       	lpm	r30, Z
    2fa2:	8b 81       	ldd	r24, Y+3	; 0x03
    2fa4:	9c 81       	ldd	r25, Y+4	; 0x04
    2fa6:	87 70       	andi	r24, 0x07	; 7
    2fa8:	99 27       	eor	r25, r25
    2faa:	20 e8       	ldi	r18, 0x80	; 128
    2fac:	30 e0       	ldi	r19, 0x00	; 0
    2fae:	02 c0       	rjmp	.+4      	; 0x2fb4 <ssd1306_draw_bitmap+0xc0>
    2fb0:	35 95       	asr	r19
    2fb2:	27 95       	ror	r18
    2fb4:	8a 95       	dec	r24
    2fb6:	e2 f7       	brpl	.-8      	; 0x2fb0 <ssd1306_draw_bitmap+0xbc>
    2fb8:	c9 01       	movw	r24, r18
    2fba:	f0 e0       	ldi	r31, 0x00	; 0
    2fbc:	e2 23       	and	r30, r18
    2fbe:	f9 23       	and	r31, r25
    2fc0:	ef 2b       	or	r30, r31
    2fc2:	49 f0       	breq	.+18     	; 0x2fd6 <ssd1306_draw_bitmap+0xe2>
    2fc4:	49 81       	ldd	r20, Y+1	; 0x01
    2fc6:	5a 81       	ldd	r21, Y+2	; 0x02
    2fc8:	b8 01       	movw	r22, r16
    2fca:	8b 81       	ldd	r24, Y+3	; 0x03
    2fcc:	9c 81       	ldd	r25, Y+4	; 0x04
    2fce:	84 0d       	add	r24, r4
    2fd0:	95 1d       	adc	r25, r5
    2fd2:	0e 94 c3 0d 	call	0x1b86	; 0x1b86 <ssd1306_draw_pixel>
    2fd6:	8b 81       	ldd	r24, Y+3	; 0x03
    2fd8:	9c 81       	ldd	r25, Y+4	; 0x04
    2fda:	01 96       	adiw	r24, 0x01	; 1
    2fdc:	9c 83       	std	Y+4, r25	; 0x04
    2fde:	8b 83       	std	Y+3, r24	; 0x03
    2fe0:	2b 81       	ldd	r18, Y+3	; 0x03
    2fe2:	3c 81       	ldd	r19, Y+4	; 0x04
    2fe4:	2c 15       	cp	r18, r12
    2fe6:	3d 05       	cpc	r19, r13
    2fe8:	84 f2       	brlt	.-96     	; 0x2f8a <ssd1306_draw_bitmap+0x96>
    2fea:	3f ef       	ldi	r19, 0xFF	; 255
    2fec:	e3 1a       	sub	r14, r19
    2fee:	f3 0a       	sbc	r15, r19
    2ff0:	0f 5f       	subi	r16, 0xFF	; 255
    2ff2:	1f 4f       	sbci	r17, 0xFF	; 255
    2ff4:	a2 0c       	add	r10, r2
    2ff6:	b3 1c       	adc	r11, r3
    2ff8:	ad cf       	rjmp	.-166    	; 0x2f54 <ssd1306_draw_bitmap+0x60>
    2ffa:	1c 82       	std	Y+4, r1	; 0x04
    2ffc:	1b 82       	std	Y+3, r1	; 0x03
    2ffe:	f0 cf       	rjmp	.-32     	; 0x2fe0 <ssd1306_draw_bitmap+0xec>

00003000 <ssd1306_draw_bitmap_bg>:
    3000:	2f 92       	push	r2
    3002:	3f 92       	push	r3
    3004:	4f 92       	push	r4
    3006:	5f 92       	push	r5
    3008:	6f 92       	push	r6
    300a:	7f 92       	push	r7
    300c:	8f 92       	push	r8
    300e:	9f 92       	push	r9
    3010:	af 92       	push	r10
    3012:	bf 92       	push	r11
    3014:	cf 92       	push	r12
    3016:	df 92       	push	r13
    3018:	ef 92       	push	r14
    301a:	ff 92       	push	r15
    301c:	0f 93       	push	r16
    301e:	1f 93       	push	r17
    3020:	cf 93       	push	r28
    3022:	df 93       	push	r29
    3024:	00 d0       	rcall	.+0      	; 0x3026 <ssd1306_draw_bitmap_bg+0x26>
    3026:	00 d0       	rcall	.+0      	; 0x3028 <ssd1306_draw_bitmap_bg+0x28>
    3028:	00 d0       	rcall	.+0      	; 0x302a <ssd1306_draw_bitmap_bg+0x2a>
    302a:	cd b7       	in	r28, 0x3d	; 61
    302c:	de b7       	in	r29, 0x3e	; 62
    302e:	2c 01       	movw	r4, r24
    3030:	3a 01       	movw	r6, r20
    3032:	59 01       	movw	r10, r18
    3034:	48 01       	movw	r8, r16
    3036:	e9 82       	std	Y+1, r14	; 0x01
    3038:	fa 82       	std	Y+2, r15	; 0x02
    303a:	cb 82       	std	Y+3, r12	; 0x03
    303c:	dc 82       	std	Y+4, r13	; 0x04
    303e:	6d 83       	std	Y+5, r22	; 0x05
    3040:	7e 83       	std	Y+6, r23	; 0x06
    3042:	19 01       	movw	r2, r18
    3044:	47 e0       	ldi	r20, 0x07	; 7
    3046:	24 0e       	add	r2, r20
    3048:	31 1c       	adc	r3, r1
    304a:	37 fe       	sbrs	r3, 7
    304c:	04 c0       	rjmp	.+8      	; 0x3056 <ssd1306_draw_bitmap_bg+0x56>
    304e:	19 01       	movw	r2, r18
    3050:	5e e0       	ldi	r21, 0x0E	; 14
    3052:	25 0e       	add	r2, r21
    3054:	31 1c       	adc	r3, r1
    3056:	93 e0       	ldi	r25, 0x03	; 3
    3058:	35 94       	asr	r3
    305a:	27 94       	ror	r2
    305c:	9a 95       	dec	r25
    305e:	e1 f7       	brne	.-8      	; 0x3058 <ssd1306_draw_bitmap_bg+0x58>
    3060:	d1 2c       	mov	r13, r1
    3062:	c1 2c       	mov	r12, r1
    3064:	f1 2c       	mov	r15, r1
    3066:	e1 2c       	mov	r14, r1
    3068:	e8 14       	cp	r14, r8
    306a:	f9 04       	cpc	r15, r9
    306c:	0c f4       	brge	.+2      	; 0x3070 <ssd1306_draw_bitmap_bg+0x70>
    306e:	4f c0       	rjmp	.+158    	; 0x310e <ssd1306_draw_bitmap_bg+0x10e>
    3070:	26 96       	adiw	r28, 0x06	; 6
    3072:	0f b6       	in	r0, 0x3f	; 63
    3074:	f8 94       	cli
    3076:	de bf       	out	0x3e, r29	; 62
    3078:	0f be       	out	0x3f, r0	; 63
    307a:	cd bf       	out	0x3d, r28	; 61
    307c:	df 91       	pop	r29
    307e:	cf 91       	pop	r28
    3080:	1f 91       	pop	r17
    3082:	0f 91       	pop	r16
    3084:	ff 90       	pop	r15
    3086:	ef 90       	pop	r14
    3088:	df 90       	pop	r13
    308a:	cf 90       	pop	r12
    308c:	bf 90       	pop	r11
    308e:	af 90       	pop	r10
    3090:	9f 90       	pop	r9
    3092:	8f 90       	pop	r8
    3094:	7f 90       	pop	r7
    3096:	6f 90       	pop	r6
    3098:	5f 90       	pop	r5
    309a:	4f 90       	pop	r4
    309c:	3f 90       	pop	r3
    309e:	2f 90       	pop	r2
    30a0:	08 95       	ret
    30a2:	f8 01       	movw	r30, r16
    30a4:	83 e0       	ldi	r24, 0x03	; 3
    30a6:	f5 95       	asr	r31
    30a8:	e7 95       	ror	r30
    30aa:	8a 95       	dec	r24
    30ac:	e1 f7       	brne	.-8      	; 0x30a6 <ssd1306_draw_bitmap_bg+0xa6>
    30ae:	ec 0d       	add	r30, r12
    30b0:	fd 1d       	adc	r31, r13
    30b2:	e6 0d       	add	r30, r6
    30b4:	f7 1d       	adc	r31, r7
    30b6:	e4 91       	lpm	r30, Z
    30b8:	c2 01       	movw	r24, r4
    30ba:	80 0f       	add	r24, r16
    30bc:	91 1f       	adc	r25, r17
    30be:	98 01       	movw	r18, r16
    30c0:	27 70       	andi	r18, 0x07	; 7
    30c2:	33 27       	eor	r19, r19
    30c4:	40 e8       	ldi	r20, 0x80	; 128
    30c6:	50 e0       	ldi	r21, 0x00	; 0
    30c8:	02 c0       	rjmp	.+4      	; 0x30ce <ssd1306_draw_bitmap_bg+0xce>
    30ca:	55 95       	asr	r21
    30cc:	47 95       	ror	r20
    30ce:	2a 95       	dec	r18
    30d0:	e2 f7       	brpl	.-8      	; 0x30ca <ssd1306_draw_bitmap_bg+0xca>
    30d2:	9a 01       	movw	r18, r20
    30d4:	f0 e0       	ldi	r31, 0x00	; 0
    30d6:	e4 23       	and	r30, r20
    30d8:	f3 23       	and	r31, r19
    30da:	49 81       	ldd	r20, Y+1	; 0x01
    30dc:	5a 81       	ldd	r21, Y+2	; 0x02
    30de:	ef 2b       	or	r30, r31
    30e0:	11 f4       	brne	.+4      	; 0x30e6 <ssd1306_draw_bitmap_bg+0xe6>
    30e2:	4b 81       	ldd	r20, Y+3	; 0x03
    30e4:	5c 81       	ldd	r21, Y+4	; 0x04
    30e6:	6d 81       	ldd	r22, Y+5	; 0x05
    30e8:	7e 81       	ldd	r23, Y+6	; 0x06
    30ea:	0e 94 c3 0d 	call	0x1b86	; 0x1b86 <ssd1306_draw_pixel>
    30ee:	0f 5f       	subi	r16, 0xFF	; 255
    30f0:	1f 4f       	sbci	r17, 0xFF	; 255
    30f2:	0a 15       	cp	r16, r10
    30f4:	1b 05       	cpc	r17, r11
    30f6:	ac f2       	brlt	.-86     	; 0x30a2 <ssd1306_draw_bitmap_bg+0xa2>
    30f8:	5f ef       	ldi	r21, 0xFF	; 255
    30fa:	e5 1a       	sub	r14, r21
    30fc:	f5 0a       	sbc	r15, r21
    30fe:	8d 81       	ldd	r24, Y+5	; 0x05
    3100:	9e 81       	ldd	r25, Y+6	; 0x06
    3102:	01 96       	adiw	r24, 0x01	; 1
    3104:	9e 83       	std	Y+6, r25	; 0x06
    3106:	8d 83       	std	Y+5, r24	; 0x05
    3108:	c2 0c       	add	r12, r2
    310a:	d3 1c       	adc	r13, r3
    310c:	ad cf       	rjmp	.-166    	; 0x3068 <ssd1306_draw_bitmap_bg+0x68>
    310e:	10 e0       	ldi	r17, 0x00	; 0
    3110:	00 e0       	ldi	r16, 0x00	; 0
    3112:	ef cf       	rjmp	.-34     	; 0x30f2 <ssd1306_draw_bitmap_bg+0xf2>

00003114 <ssd1306_draw_xbitmap>:
    3114:	2f 92       	push	r2
    3116:	3f 92       	push	r3
    3118:	4f 92       	push	r4
    311a:	5f 92       	push	r5
    311c:	6f 92       	push	r6
    311e:	7f 92       	push	r7
    3120:	8f 92       	push	r8
    3122:	9f 92       	push	r9
    3124:	af 92       	push	r10
    3126:	bf 92       	push	r11
    3128:	cf 92       	push	r12
    312a:	df 92       	push	r13
    312c:	ef 92       	push	r14
    312e:	ff 92       	push	r15
    3130:	0f 93       	push	r16
    3132:	1f 93       	push	r17
    3134:	cf 93       	push	r28
    3136:	df 93       	push	r29
    3138:	00 d0       	rcall	.+0      	; 0x313a <ssd1306_draw_xbitmap+0x26>
    313a:	00 d0       	rcall	.+0      	; 0x313c <ssd1306_draw_xbitmap+0x28>
    313c:	cd b7       	in	r28, 0x3d	; 61
    313e:	de b7       	in	r29, 0x3e	; 62
    3140:	3c 01       	movw	r6, r24
    3142:	5a 01       	movw	r10, r20
    3144:	69 01       	movw	r12, r18
    3146:	18 01       	movw	r2, r16
    3148:	e9 82       	std	Y+1, r14	; 0x01
    314a:	fa 82       	std	Y+2, r15	; 0x02
    314c:	8b 01       	movw	r16, r22
    314e:	29 01       	movw	r4, r18
    3150:	87 e0       	ldi	r24, 0x07	; 7
    3152:	48 0e       	add	r4, r24
    3154:	51 1c       	adc	r5, r1
    3156:	57 fe       	sbrs	r5, 7
    3158:	04 c0       	rjmp	.+8      	; 0x3162 <ssd1306_draw_xbitmap+0x4e>
    315a:	29 01       	movw	r4, r18
    315c:	9e e0       	ldi	r25, 0x0E	; 14
    315e:	49 0e       	add	r4, r25
    3160:	51 1c       	adc	r5, r1
    3162:	93 e0       	ldi	r25, 0x03	; 3
    3164:	55 94       	asr	r5
    3166:	47 94       	ror	r4
    3168:	9a 95       	dec	r25
    316a:	e1 f7       	brne	.-8      	; 0x3164 <ssd1306_draw_xbitmap+0x50>
    316c:	91 2c       	mov	r9, r1
    316e:	81 2c       	mov	r8, r1
    3170:	f1 2c       	mov	r15, r1
    3172:	e1 2c       	mov	r14, r1
    3174:	e2 14       	cp	r14, r2
    3176:	f3 04       	cpc	r15, r3
    3178:	0c f4       	brge	.+2      	; 0x317c <ssd1306_draw_xbitmap+0x68>
    317a:	4a c0       	rjmp	.+148    	; 0x3210 <ssd1306_draw_xbitmap+0xfc>
    317c:	0f 90       	pop	r0
    317e:	0f 90       	pop	r0
    3180:	0f 90       	pop	r0
    3182:	0f 90       	pop	r0
    3184:	df 91       	pop	r29
    3186:	cf 91       	pop	r28
    3188:	1f 91       	pop	r17
    318a:	0f 91       	pop	r16
    318c:	ff 90       	pop	r15
    318e:	ef 90       	pop	r14
    3190:	df 90       	pop	r13
    3192:	cf 90       	pop	r12
    3194:	bf 90       	pop	r11
    3196:	af 90       	pop	r10
    3198:	9f 90       	pop	r9
    319a:	8f 90       	pop	r8
    319c:	7f 90       	pop	r7
    319e:	6f 90       	pop	r6
    31a0:	5f 90       	pop	r5
    31a2:	4f 90       	pop	r4
    31a4:	3f 90       	pop	r3
    31a6:	2f 90       	pop	r2
    31a8:	08 95       	ret
    31aa:	eb 81       	ldd	r30, Y+3	; 0x03
    31ac:	fc 81       	ldd	r31, Y+4	; 0x04
    31ae:	83 e0       	ldi	r24, 0x03	; 3
    31b0:	f5 95       	asr	r31
    31b2:	e7 95       	ror	r30
    31b4:	8a 95       	dec	r24
    31b6:	e1 f7       	brne	.-8      	; 0x31b0 <ssd1306_draw_xbitmap+0x9c>
    31b8:	e8 0d       	add	r30, r8
    31ba:	f9 1d       	adc	r31, r9
    31bc:	ea 0d       	add	r30, r10
    31be:	fb 1d       	adc	r31, r11
    31c0:	e4 91       	lpm	r30, Z
    31c2:	f0 e0       	ldi	r31, 0x00	; 0
    31c4:	8b 81       	ldd	r24, Y+3	; 0x03
    31c6:	9c 81       	ldd	r25, Y+4	; 0x04
    31c8:	87 70       	andi	r24, 0x07	; 7
    31ca:	99 27       	eor	r25, r25
    31cc:	02 c0       	rjmp	.+4      	; 0x31d2 <ssd1306_draw_xbitmap+0xbe>
    31ce:	f5 95       	asr	r31
    31d0:	e7 95       	ror	r30
    31d2:	8a 95       	dec	r24
    31d4:	e2 f7       	brpl	.-8      	; 0x31ce <ssd1306_draw_xbitmap+0xba>
    31d6:	e0 ff       	sbrs	r30, 0
    31d8:	09 c0       	rjmp	.+18     	; 0x31ec <ssd1306_draw_xbitmap+0xd8>
    31da:	49 81       	ldd	r20, Y+1	; 0x01
    31dc:	5a 81       	ldd	r21, Y+2	; 0x02
    31de:	b8 01       	movw	r22, r16
    31e0:	8b 81       	ldd	r24, Y+3	; 0x03
    31e2:	9c 81       	ldd	r25, Y+4	; 0x04
    31e4:	86 0d       	add	r24, r6
    31e6:	97 1d       	adc	r25, r7
    31e8:	0e 94 c3 0d 	call	0x1b86	; 0x1b86 <ssd1306_draw_pixel>
    31ec:	8b 81       	ldd	r24, Y+3	; 0x03
    31ee:	9c 81       	ldd	r25, Y+4	; 0x04
    31f0:	01 96       	adiw	r24, 0x01	; 1
    31f2:	9c 83       	std	Y+4, r25	; 0x04
    31f4:	8b 83       	std	Y+3, r24	; 0x03
    31f6:	8b 81       	ldd	r24, Y+3	; 0x03
    31f8:	9c 81       	ldd	r25, Y+4	; 0x04
    31fa:	8c 15       	cp	r24, r12
    31fc:	9d 05       	cpc	r25, r13
    31fe:	ac f2       	brlt	.-86     	; 0x31aa <ssd1306_draw_xbitmap+0x96>
    3200:	9f ef       	ldi	r25, 0xFF	; 255
    3202:	e9 1a       	sub	r14, r25
    3204:	f9 0a       	sbc	r15, r25
    3206:	0f 5f       	subi	r16, 0xFF	; 255
    3208:	1f 4f       	sbci	r17, 0xFF	; 255
    320a:	84 0c       	add	r8, r4
    320c:	95 1c       	adc	r9, r5
    320e:	b2 cf       	rjmp	.-156    	; 0x3174 <ssd1306_draw_xbitmap+0x60>
    3210:	1c 82       	std	Y+4, r1	; 0x04
    3212:	1b 82       	std	Y+3, r1	; 0x03
    3214:	f0 cf       	rjmp	.-32     	; 0x31f6 <ssd1306_draw_xbitmap+0xe2>

00003216 <ssd1306_draw_char>:
    3216:	2f 92       	push	r2
    3218:	3f 92       	push	r3
    321a:	4f 92       	push	r4
    321c:	5f 92       	push	r5
    321e:	6f 92       	push	r6
    3220:	7f 92       	push	r7
    3222:	8f 92       	push	r8
    3224:	9f 92       	push	r9
    3226:	af 92       	push	r10
    3228:	bf 92       	push	r11
    322a:	cf 92       	push	r12
    322c:	df 92       	push	r13
    322e:	ef 92       	push	r14
    3230:	ff 92       	push	r15
    3232:	0f 93       	push	r16
    3234:	1f 93       	push	r17
    3236:	cf 93       	push	r28
    3238:	df 93       	push	r29
    323a:	00 d0       	rcall	.+0      	; 0x323c <ssd1306_draw_char+0x26>
    323c:	00 d0       	rcall	.+0      	; 0x323e <ssd1306_draw_char+0x28>
    323e:	00 d0       	rcall	.+0      	; 0x3240 <ssd1306_draw_char+0x2a>
    3240:	0f 92       	push	r0
    3242:	cd b7       	in	r28, 0x3d	; 61
    3244:	de b7       	in	r29, 0x3e	; 62
    3246:	8e 83       	std	Y+6, r24	; 0x06
    3248:	9f 83       	std	Y+7, r25	; 0x07
    324a:	5b 01       	movw	r10, r22
    324c:	19 01       	movw	r2, r18
    324e:	09 83       	std	Y+1, r16	; 0x01
    3250:	1a 83       	std	Y+2, r17	; 0x02
    3252:	80 91 4c 03 	lds	r24, 0x034C	; 0x80034c <_width>
    3256:	90 91 4d 03 	lds	r25, 0x034D	; 0x80034d <_width+0x1>
    325a:	ee 81       	ldd	r30, Y+6	; 0x06
    325c:	ff 81       	ldd	r31, Y+7	; 0x07
    325e:	e8 17       	cp	r30, r24
    3260:	f9 07       	cpc	r31, r25
    3262:	0c f0       	brlt	.+2      	; 0x3266 <ssd1306_draw_char+0x50>
    3264:	67 c0       	rjmp	.+206    	; 0x3334 <ssd1306_draw_char+0x11e>
    3266:	80 91 4a 03 	lds	r24, 0x034A	; 0x80034a <_height>
    326a:	90 91 4b 03 	lds	r25, 0x034B	; 0x80034b <_height+0x1>
    326e:	68 17       	cp	r22, r24
    3270:	79 07       	cpc	r23, r25
    3272:	0c f0       	brlt	.+2      	; 0x3276 <ssd1306_draw_char+0x60>
    3274:	5f c0       	rjmp	.+190    	; 0x3334 <ssd1306_draw_char+0x11e>
    3276:	ce 2c       	mov	r12, r14
    3278:	d1 2c       	mov	r13, r1
    327a:	cf 01       	movw	r24, r30
    327c:	f6 e0       	ldi	r31, 0x06	; 6
    327e:	ef 9e       	mul	r14, r31
    3280:	80 0d       	add	r24, r0
    3282:	91 1d       	adc	r25, r1
    3284:	11 24       	eor	r1, r1
    3286:	18 16       	cp	r1, r24
    3288:	19 06       	cpc	r1, r25
    328a:	0c f0       	brlt	.+2      	; 0x328e <ssd1306_draw_char+0x78>
    328c:	53 c0       	rjmp	.+166    	; 0x3334 <ssd1306_draw_char+0x11e>
    328e:	c6 01       	movw	r24, r12
    3290:	23 e0       	ldi	r18, 0x03	; 3
    3292:	88 0f       	add	r24, r24
    3294:	99 1f       	adc	r25, r25
    3296:	2a 95       	dec	r18
    3298:	e1 f7       	brne	.-8      	; 0x3292 <ssd1306_draw_char+0x7c>
    329a:	86 0f       	add	r24, r22
    329c:	97 1f       	adc	r25, r23
    329e:	18 16       	cp	r1, r24
    32a0:	19 06       	cpc	r1, r25
    32a2:	0c f0       	brlt	.+2      	; 0x32a6 <ssd1306_draw_char+0x90>
    32a4:	47 c0       	rjmp	.+142    	; 0x3334 <ssd1306_draw_char+0x11e>
    32a6:	80 91 b5 03 	lds	r24, 0x03B5	; 0x8003b5 <_cp437>
    32aa:	81 11       	cpse	r24, r1
    32ac:	03 c0       	rjmp	.+6      	; 0x32b4 <ssd1306_draw_char+0x9e>
    32ae:	40 3b       	cpi	r20, 0xB0	; 176
    32b0:	08 f0       	brcs	.+2      	; 0x32b4 <ssd1306_draw_char+0x9e>
    32b2:	4f 5f       	subi	r20, 0xFF	; 255
    32b4:	25 e0       	ldi	r18, 0x05	; 5
    32b6:	42 9f       	mul	r20, r18
    32b8:	a0 01       	movw	r20, r0
    32ba:	11 24       	eor	r1, r1
    32bc:	ca 01       	movw	r24, r20
    32be:	88 59       	subi	r24, 0x98	; 152
    32c0:	9f 4f       	sbci	r25, 0xFF	; 255
    32c2:	9d 83       	std	Y+5, r25	; 0x05
    32c4:	8c 83       	std	Y+4, r24	; 0x04
    32c6:	4e 80       	ldd	r4, Y+6	; 0x06
    32c8:	5f 80       	ldd	r5, Y+7	; 0x07
    32ca:	1b 82       	std	Y+3, r1	; 0x03
    32cc:	9b 81       	ldd	r25, Y+3	; 0x03
    32ce:	f1 2c       	mov	r15, r1
    32d0:	95 30       	cpi	r25, 0x05	; 5
    32d2:	19 f0       	breq	.+6      	; 0x32da <ssd1306_draw_char+0xc4>
    32d4:	ec 81       	ldd	r30, Y+4	; 0x04
    32d6:	fd 81       	ldd	r31, Y+5	; 0x05
    32d8:	f4 90       	lpm	r15, Z
    32da:	35 01       	movw	r6, r10
    32dc:	91 2c       	mov	r9, r1
    32de:	81 2c       	mov	r8, r1
    32e0:	f0 fe       	sbrs	r15, 0
    32e2:	41 c0       	rjmp	.+130    	; 0x3366 <ssd1306_draw_char+0x150>
    32e4:	f1 e0       	ldi	r31, 0x01	; 1
    32e6:	a1 01       	movw	r20, r2
    32e8:	81 01       	movw	r16, r2
    32ea:	ef 12       	cpse	r14, r31
    32ec:	49 c0       	rjmp	.+146    	; 0x3380 <ssd1306_draw_char+0x16a>
    32ee:	b5 01       	movw	r22, r10
    32f0:	68 0d       	add	r22, r8
    32f2:	79 1d       	adc	r23, r9
    32f4:	c2 01       	movw	r24, r4
    32f6:	0e 94 c3 0d 	call	0x1b86	; 0x1b86 <ssd1306_draw_pixel>
    32fa:	f6 94       	lsr	r15
    32fc:	8f ef       	ldi	r24, 0xFF	; 255
    32fe:	88 1a       	sub	r8, r24
    3300:	98 0a       	sbc	r9, r24
    3302:	6c 0c       	add	r6, r12
    3304:	7d 1c       	adc	r7, r13
    3306:	98 e0       	ldi	r25, 0x08	; 8
    3308:	89 16       	cp	r8, r25
    330a:	91 04       	cpc	r9, r1
    330c:	49 f7       	brne	.-46     	; 0x32e0 <ssd1306_draw_char+0xca>
    330e:	eb 81       	ldd	r30, Y+3	; 0x03
    3310:	ef 5f       	subi	r30, 0xFF	; 255
    3312:	eb 83       	std	Y+3, r30	; 0x03
    3314:	2e 81       	ldd	r18, Y+6	; 0x06
    3316:	3f 81       	ldd	r19, Y+7	; 0x07
    3318:	2c 0d       	add	r18, r12
    331a:	3d 1d       	adc	r19, r13
    331c:	3f 83       	std	Y+7, r19	; 0x07
    331e:	2e 83       	std	Y+6, r18	; 0x06
    3320:	3f ef       	ldi	r19, 0xFF	; 255
    3322:	43 1a       	sub	r4, r19
    3324:	53 0a       	sbc	r5, r19
    3326:	8c 81       	ldd	r24, Y+4	; 0x04
    3328:	9d 81       	ldd	r25, Y+5	; 0x05
    332a:	01 96       	adiw	r24, 0x01	; 1
    332c:	9d 83       	std	Y+5, r25	; 0x05
    332e:	8c 83       	std	Y+4, r24	; 0x04
    3330:	e6 30       	cpi	r30, 0x06	; 6
    3332:	61 f6       	brne	.-104    	; 0x32cc <ssd1306_draw_char+0xb6>
    3334:	27 96       	adiw	r28, 0x07	; 7
    3336:	0f b6       	in	r0, 0x3f	; 63
    3338:	f8 94       	cli
    333a:	de bf       	out	0x3e, r29	; 62
    333c:	0f be       	out	0x3f, r0	; 63
    333e:	cd bf       	out	0x3d, r28	; 61
    3340:	df 91       	pop	r29
    3342:	cf 91       	pop	r28
    3344:	1f 91       	pop	r17
    3346:	0f 91       	pop	r16
    3348:	ff 90       	pop	r15
    334a:	ef 90       	pop	r14
    334c:	df 90       	pop	r13
    334e:	cf 90       	pop	r12
    3350:	bf 90       	pop	r11
    3352:	af 90       	pop	r10
    3354:	9f 90       	pop	r9
    3356:	8f 90       	pop	r8
    3358:	7f 90       	pop	r7
    335a:	6f 90       	pop	r6
    335c:	5f 90       	pop	r5
    335e:	4f 90       	pop	r4
    3360:	3f 90       	pop	r3
    3362:	2f 90       	pop	r2
    3364:	08 95       	ret
    3366:	29 81       	ldd	r18, Y+1	; 0x01
    3368:	3a 81       	ldd	r19, Y+2	; 0x02
    336a:	22 15       	cp	r18, r2
    336c:	33 05       	cpc	r19, r3
    336e:	29 f2       	breq	.-118    	; 0x32fa <ssd1306_draw_char+0xe4>
    3370:	31 e0       	ldi	r19, 0x01	; 1
    3372:	09 81       	ldd	r16, Y+1	; 0x01
    3374:	1a 81       	ldd	r17, Y+2	; 0x02
    3376:	e3 12       	cpse	r14, r19
    3378:	03 c0       	rjmp	.+6      	; 0x3380 <ssd1306_draw_char+0x16a>
    337a:	49 81       	ldd	r20, Y+1	; 0x01
    337c:	5a 81       	ldd	r21, Y+2	; 0x02
    337e:	b7 cf       	rjmp	.-146    	; 0x32ee <ssd1306_draw_char+0xd8>
    3380:	96 01       	movw	r18, r12
    3382:	a6 01       	movw	r20, r12
    3384:	b3 01       	movw	r22, r6
    3386:	8e 81       	ldd	r24, Y+6	; 0x06
    3388:	9f 81       	ldd	r25, Y+7	; 0x07
    338a:	0e 94 1f 14 	call	0x283e	; 0x283e <ssd1306_fill_rect>
    338e:	b5 cf       	rjmp	.-150    	; 0x32fa <ssd1306_draw_char+0xe4>

00003390 <ssd1306_write>:
    3390:	cf 92       	push	r12
    3392:	df 92       	push	r13
    3394:	ef 92       	push	r14
    3396:	ff 92       	push	r15
    3398:	0f 93       	push	r16
    339a:	1f 93       	push	r17
    339c:	cf 93       	push	r28
    339e:	df 93       	push	r29
    33a0:	48 2f       	mov	r20, r24
    33a2:	8a 30       	cpi	r24, 0x0A	; 10
    33a4:	f9 f4       	brne	.+62     	; 0x33e4 <ssd1306_write+0x54>
    33a6:	80 91 41 03 	lds	r24, 0x0341	; 0x800341 <textsize>
    33aa:	98 e0       	ldi	r25, 0x08	; 8
    33ac:	89 9f       	mul	r24, r25
    33ae:	90 01       	movw	r18, r0
    33b0:	11 24       	eor	r1, r1
    33b2:	80 91 42 03 	lds	r24, 0x0342	; 0x800342 <cursor_y>
    33b6:	90 91 43 03 	lds	r25, 0x0343	; 0x800343 <cursor_y+0x1>
    33ba:	82 0f       	add	r24, r18
    33bc:	93 1f       	adc	r25, r19
    33be:	90 93 43 03 	sts	0x0343, r25	; 0x800343 <cursor_y+0x1>
    33c2:	80 93 42 03 	sts	0x0342, r24	; 0x800342 <cursor_y>
    33c6:	10 92 45 03 	sts	0x0345, r1	; 0x800345 <cursor_x+0x1>
    33ca:	10 92 44 03 	sts	0x0344, r1	; 0x800344 <cursor_x>
    33ce:	81 e0       	ldi	r24, 0x01	; 1
    33d0:	90 e0       	ldi	r25, 0x00	; 0
    33d2:	df 91       	pop	r29
    33d4:	cf 91       	pop	r28
    33d6:	1f 91       	pop	r17
    33d8:	0f 91       	pop	r16
    33da:	ff 90       	pop	r15
    33dc:	ef 90       	pop	r14
    33de:	df 90       	pop	r13
    33e0:	cf 90       	pop	r12
    33e2:	08 95       	ret
    33e4:	8d 30       	cpi	r24, 0x0D	; 13
    33e6:	99 f3       	breq	.-26     	; 0x33ce <ssd1306_write+0x3e>
    33e8:	f0 90 41 03 	lds	r15, 0x0341	; 0x800341 <textsize>
    33ec:	c0 90 42 03 	lds	r12, 0x0342	; 0x800342 <cursor_y>
    33f0:	d0 90 43 03 	lds	r13, 0x0343	; 0x800343 <cursor_y+0x1>
    33f4:	c0 91 44 03 	lds	r28, 0x0344	; 0x800344 <cursor_x>
    33f8:	d0 91 45 03 	lds	r29, 0x0345	; 0x800345 <cursor_x+0x1>
    33fc:	00 91 3c 03 	lds	r16, 0x033C	; 0x80033c <textbgcolor>
    3400:	10 91 3d 03 	lds	r17, 0x033D	; 0x80033d <textbgcolor+0x1>
    3404:	20 91 3e 03 	lds	r18, 0x033E	; 0x80033e <textcolor>
    3408:	30 91 3f 03 	lds	r19, 0x033F	; 0x80033f <textcolor+0x1>
    340c:	ef 2c       	mov	r14, r15
    340e:	b6 01       	movw	r22, r12
    3410:	ce 01       	movw	r24, r28
    3412:	0e 94 0b 19 	call	0x3216	; 0x3216 <ssd1306_draw_char>
    3416:	6f 2d       	mov	r22, r15
    3418:	70 e0       	ldi	r23, 0x00	; 0
    341a:	86 e0       	ldi	r24, 0x06	; 6
    341c:	f8 9e       	mul	r15, r24
    341e:	c0 0d       	add	r28, r0
    3420:	d1 1d       	adc	r29, r1
    3422:	11 24       	eor	r1, r1
    3424:	d0 93 45 03 	sts	0x0345, r29	; 0x800345 <cursor_x+0x1>
    3428:	c0 93 44 03 	sts	0x0344, r28	; 0x800344 <cursor_x>
    342c:	80 91 b6 03 	lds	r24, 0x03B6	; 0x8003b6 <wrap>
    3430:	88 23       	and	r24, r24
    3432:	69 f2       	breq	.-102    	; 0x33ce <ssd1306_write+0x3e>
    3434:	2a ef       	ldi	r18, 0xFA	; 250
    3436:	26 03       	mulsu	r18, r22
    3438:	c0 01       	movw	r24, r0
    343a:	27 9f       	mul	r18, r23
    343c:	90 0d       	add	r25, r0
    343e:	11 24       	eor	r1, r1
    3440:	20 91 4c 03 	lds	r18, 0x034C	; 0x80034c <_width>
    3444:	30 91 4d 03 	lds	r19, 0x034D	; 0x80034d <_width+0x1>
    3448:	82 0f       	add	r24, r18
    344a:	93 1f       	adc	r25, r19
    344c:	8c 17       	cp	r24, r28
    344e:	9d 07       	cpc	r25, r29
    3450:	0c f0       	brlt	.+2      	; 0x3454 <ssd1306_write+0xc4>
    3452:	bd cf       	rjmp	.-134    	; 0x33ce <ssd1306_write+0x3e>
    3454:	83 e0       	ldi	r24, 0x03	; 3
    3456:	66 0f       	add	r22, r22
    3458:	77 1f       	adc	r23, r23
    345a:	8a 95       	dec	r24
    345c:	e1 f7       	brne	.-8      	; 0x3456 <ssd1306_write+0xc6>
    345e:	6c 0d       	add	r22, r12
    3460:	7d 1d       	adc	r23, r13
    3462:	70 93 43 03 	sts	0x0343, r23	; 0x800343 <cursor_y+0x1>
    3466:	60 93 42 03 	sts	0x0342, r22	; 0x800342 <cursor_y>
    346a:	ad cf       	rjmp	.-166    	; 0x33c6 <ssd1306_write+0x36>

0000346c <ssd1306_set_cursor>:
    346c:	90 93 45 03 	sts	0x0345, r25	; 0x800345 <cursor_x+0x1>
    3470:	80 93 44 03 	sts	0x0344, r24	; 0x800344 <cursor_x>
    3474:	70 93 43 03 	sts	0x0343, r23	; 0x800343 <cursor_y+0x1>
    3478:	60 93 42 03 	sts	0x0342, r22	; 0x800342 <cursor_y>
    347c:	08 95       	ret

0000347e <ssd1306_get_cursor_x>:
    347e:	80 91 44 03 	lds	r24, 0x0344	; 0x800344 <cursor_x>
    3482:	90 91 45 03 	lds	r25, 0x0345	; 0x800345 <cursor_x+0x1>
    3486:	08 95       	ret

00003488 <ssd1306_get_cursor_y>:
    3488:	80 91 42 03 	lds	r24, 0x0342	; 0x800342 <cursor_y>
    348c:	90 91 43 03 	lds	r25, 0x0343	; 0x800343 <cursor_y+0x1>
    3490:	08 95       	ret

00003492 <ssd1306_set_textsize>:
    3492:	81 11       	cpse	r24, r1
    3494:	01 c0       	rjmp	.+2      	; 0x3498 <ssd1306_set_textsize+0x6>
    3496:	81 e0       	ldi	r24, 0x01	; 1
    3498:	80 93 41 03 	sts	0x0341, r24	; 0x800341 <textsize>
    349c:	08 95       	ret

0000349e <ssd1306_set_textcolor>:
    349e:	80 93 3c 03 	sts	0x033C, r24	; 0x80033c <textbgcolor>
    34a2:	90 93 3d 03 	sts	0x033D, r25	; 0x80033d <textbgcolor+0x1>
    34a6:	80 93 3e 03 	sts	0x033E, r24	; 0x80033e <textcolor>
    34aa:	90 93 3f 03 	sts	0x033F, r25	; 0x80033f <textcolor+0x1>
    34ae:	08 95       	ret

000034b0 <ssd1306_set_textcolor_bg>:
    34b0:	90 93 3f 03 	sts	0x033F, r25	; 0x80033f <textcolor+0x1>
    34b4:	80 93 3e 03 	sts	0x033E, r24	; 0x80033e <textcolor>
    34b8:	70 93 3d 03 	sts	0x033D, r23	; 0x80033d <textbgcolor+0x1>
    34bc:	60 93 3c 03 	sts	0x033C, r22	; 0x80033c <textbgcolor>
    34c0:	08 95       	ret

000034c2 <ssd1306_set_textwrap>:
    34c2:	80 93 b6 03 	sts	0x03B6, r24	; 0x8003b6 <wrap>
    34c6:	08 95       	ret

000034c8 <ssd1306_get_rotation>:
    34c8:	80 91 40 03 	lds	r24, 0x0340	; 0x800340 <rotation>
    34cc:	08 95       	ret

000034ce <ssd1306_set_rotation>:
    34ce:	0c 94 00 0d 	jmp	0x1a00	; 0x1a00 <set_rotation>

000034d2 <ssd1306_cp437>:
    34d2:	80 93 b5 03 	sts	0x03B5, r24	; 0x8003b5 <_cp437>
    34d6:	08 95       	ret

000034d8 <ssd1306_putstring>:
    34d8:	cf 93       	push	r28
    34da:	df 93       	push	r29
    34dc:	ec 01       	movw	r28, r24
    34de:	89 91       	ld	r24, Y+
    34e0:	81 11       	cpse	r24, r1
    34e2:	03 c0       	rjmp	.+6      	; 0x34ea <ssd1306_putstring+0x12>
    34e4:	df 91       	pop	r29
    34e6:	cf 91       	pop	r28
    34e8:	08 95       	ret
    34ea:	0e 94 c8 19 	call	0x3390	; 0x3390 <ssd1306_write>
    34ee:	f7 cf       	rjmp	.-18     	; 0x34de <ssd1306_putstring+0x6>

000034f0 <ssd1306_puts>:
    34f0:	0e 94 6c 1a 	call	0x34d8	; 0x34d8 <ssd1306_putstring>
    34f4:	8a e0       	ldi	r24, 0x0A	; 10
    34f6:	0c 94 c8 19 	jmp	0x3390	; 0x3390 <ssd1306_write>

000034fa <Motor>:
    34fa:	cf 93       	push	r28
    34fc:	df 93       	push	r29
    34fe:	98 2f       	mov	r25, r24
    3500:	d6 2f       	mov	r29, r22
    3502:	c4 2f       	mov	r28, r20
    3504:	e0 91 b7 03 	lds	r30, 0x03B7	; 0x8003b7 <motorcfglcl>
    3508:	f0 91 b8 03 	lds	r31, 0x03B8	; 0x8003b8 <motorcfglcl+0x1>
    350c:	81 81       	ldd	r24, Z+1	; 0x01
    350e:	93 30       	cpi	r25, 0x03	; 3
    3510:	09 f4       	brne	.+2      	; 0x3514 <Motor+0x1a>
    3512:	73 c0       	rjmp	.+230    	; 0x35fa <Motor+0x100>
    3514:	b0 f4       	brcc	.+44     	; 0x3542 <Motor+0x48>
    3516:	91 30       	cpi	r25, 0x01	; 1
    3518:	51 f1       	breq	.+84     	; 0x356e <Motor+0x74>
    351a:	92 30       	cpi	r25, 0x02	; 2
    351c:	09 f4       	brne	.+2      	; 0x3520 <Motor+0x26>
    351e:	40 c0       	rjmp	.+128    	; 0x35a0 <Motor+0xa6>
    3520:	60 e0       	ldi	r22, 0x00	; 0
    3522:	0e 94 f0 1d 	call	0x3be0	; 0x3be0 <gpioSet>
    3526:	e0 91 b7 03 	lds	r30, 0x03B7	; 0x8003b7 <motorcfglcl>
    352a:	f0 91 b8 03 	lds	r31, 0x03B8	; 0x8003b8 <motorcfglcl+0x1>
    352e:	60 e0       	ldi	r22, 0x00	; 0
    3530:	82 81       	ldd	r24, Z+2	; 0x02
    3532:	0e 94 f0 1d 	call	0x3be0	; 0x3be0 <gpioSet>
    3536:	e0 91 b7 03 	lds	r30, 0x03B7	; 0x8003b7 <motorcfglcl>
    353a:	f0 91 b8 03 	lds	r31, 0x03B8	; 0x8003b8 <motorcfglcl+0x1>
    353e:	60 e0       	ldi	r22, 0x00	; 0
    3540:	26 c0       	rjmp	.+76     	; 0x358e <Motor+0x94>
    3542:	94 30       	cpi	r25, 0x04	; 4
    3544:	09 f4       	brne	.+2      	; 0x3548 <Motor+0x4e>
    3546:	62 c0       	rjmp	.+196    	; 0x360c <Motor+0x112>
    3548:	95 30       	cpi	r25, 0x05	; 5
    354a:	51 f7       	brne	.-44     	; 0x3520 <Motor+0x26>
    354c:	61 e0       	ldi	r22, 0x01	; 1
    354e:	0e 94 f0 1d 	call	0x3be0	; 0x3be0 <gpioSet>
    3552:	e0 91 b7 03 	lds	r30, 0x03B7	; 0x8003b7 <motorcfglcl>
    3556:	f0 91 b8 03 	lds	r31, 0x03B8	; 0x8003b8 <motorcfglcl+0x1>
    355a:	61 e0       	ldi	r22, 0x01	; 1
    355c:	82 81       	ldd	r24, Z+2	; 0x02
    355e:	0e 94 f0 1d 	call	0x3be0	; 0x3be0 <gpioSet>
    3562:	e0 91 b7 03 	lds	r30, 0x03B7	; 0x8003b7 <motorcfglcl>
    3566:	f0 91 b8 03 	lds	r31, 0x03B8	; 0x8003b8 <motorcfglcl+0x1>
    356a:	61 e0       	ldi	r22, 0x01	; 1
    356c:	29 c0       	rjmp	.+82     	; 0x35c0 <Motor+0xc6>
    356e:	61 e0       	ldi	r22, 0x01	; 1
    3570:	0e 94 f0 1d 	call	0x3be0	; 0x3be0 <gpioSet>
    3574:	e0 91 b7 03 	lds	r30, 0x03B7	; 0x8003b7 <motorcfglcl>
    3578:	f0 91 b8 03 	lds	r31, 0x03B8	; 0x8003b8 <motorcfglcl+0x1>
    357c:	60 e0       	ldi	r22, 0x00	; 0
    357e:	82 81       	ldd	r24, Z+2	; 0x02
    3580:	0e 94 f0 1d 	call	0x3be0	; 0x3be0 <gpioSet>
    3584:	e0 91 b7 03 	lds	r30, 0x03B7	; 0x8003b7 <motorcfglcl>
    3588:	f0 91 b8 03 	lds	r31, 0x03B8	; 0x8003b8 <motorcfglcl+0x1>
    358c:	61 e0       	ldi	r22, 0x01	; 1
    358e:	84 81       	ldd	r24, Z+4	; 0x04
    3590:	0e 94 f0 1d 	call	0x3be0	; 0x3be0 <gpioSet>
    3594:	e0 91 b7 03 	lds	r30, 0x03B7	; 0x8003b7 <motorcfglcl>
    3598:	f0 91 b8 03 	lds	r31, 0x03B8	; 0x8003b8 <motorcfglcl+0x1>
    359c:	60 e0       	ldi	r22, 0x00	; 0
    359e:	18 c0       	rjmp	.+48     	; 0x35d0 <Motor+0xd6>
    35a0:	60 e0       	ldi	r22, 0x00	; 0
    35a2:	0e 94 f0 1d 	call	0x3be0	; 0x3be0 <gpioSet>
    35a6:	e0 91 b7 03 	lds	r30, 0x03B7	; 0x8003b7 <motorcfglcl>
    35aa:	f0 91 b8 03 	lds	r31, 0x03B8	; 0x8003b8 <motorcfglcl+0x1>
    35ae:	61 e0       	ldi	r22, 0x01	; 1
    35b0:	82 81       	ldd	r24, Z+2	; 0x02
    35b2:	0e 94 f0 1d 	call	0x3be0	; 0x3be0 <gpioSet>
    35b6:	e0 91 b7 03 	lds	r30, 0x03B7	; 0x8003b7 <motorcfglcl>
    35ba:	f0 91 b8 03 	lds	r31, 0x03B8	; 0x8003b8 <motorcfglcl+0x1>
    35be:	60 e0       	ldi	r22, 0x00	; 0
    35c0:	84 81       	ldd	r24, Z+4	; 0x04
    35c2:	0e 94 f0 1d 	call	0x3be0	; 0x3be0 <gpioSet>
    35c6:	e0 91 b7 03 	lds	r30, 0x03B7	; 0x8003b7 <motorcfglcl>
    35ca:	f0 91 b8 03 	lds	r31, 0x03B8	; 0x8003b8 <motorcfglcl+0x1>
    35ce:	61 e0       	ldi	r22, 0x01	; 1
    35d0:	85 81       	ldd	r24, Z+5	; 0x05
    35d2:	0e 94 f0 1d 	call	0x3be0	; 0x3be0 <gpioSet>
    35d6:	e0 91 b7 03 	lds	r30, 0x03B7	; 0x8003b7 <motorcfglcl>
    35da:	f0 91 b8 03 	lds	r31, 0x03B8	; 0x8003b8 <motorcfglcl+0x1>
    35de:	6d 2f       	mov	r22, r29
    35e0:	80 81       	ld	r24, Z
    35e2:	0e 94 88 1e 	call	0x3d10	; 0x3d10 <pwmSet>
    35e6:	e0 91 b7 03 	lds	r30, 0x03B7	; 0x8003b7 <motorcfglcl>
    35ea:	f0 91 b8 03 	lds	r31, 0x03B8	; 0x8003b8 <motorcfglcl+0x1>
    35ee:	6c 2f       	mov	r22, r28
    35f0:	83 81       	ldd	r24, Z+3	; 0x03
    35f2:	df 91       	pop	r29
    35f4:	cf 91       	pop	r28
    35f6:	0c 94 88 1e 	jmp	0x3d10	; 0x3d10 <pwmSet>
    35fa:	61 e0       	ldi	r22, 0x01	; 1
    35fc:	0e 94 f0 1d 	call	0x3be0	; 0x3be0 <gpioSet>
    3600:	e0 91 b7 03 	lds	r30, 0x03B7	; 0x8003b7 <motorcfglcl>
    3604:	f0 91 b8 03 	lds	r31, 0x03B8	; 0x8003b8 <motorcfglcl+0x1>
    3608:	60 e0       	ldi	r22, 0x00	; 0
    360a:	d2 cf       	rjmp	.-92     	; 0x35b0 <Motor+0xb6>
    360c:	60 e0       	ldi	r22, 0x00	; 0
    360e:	0e 94 f0 1d 	call	0x3be0	; 0x3be0 <gpioSet>
    3612:	e0 91 b7 03 	lds	r30, 0x03B7	; 0x8003b7 <motorcfglcl>
    3616:	f0 91 b8 03 	lds	r31, 0x03B8	; 0x8003b8 <motorcfglcl+0x1>
    361a:	61 e0       	ldi	r22, 0x01	; 1
    361c:	b0 cf       	rjmp	.-160    	; 0x357e <Motor+0x84>

0000361e <Motor_Init>:
    361e:	fc 01       	movw	r30, r24
    3620:	90 93 b8 03 	sts	0x03B8, r25	; 0x8003b8 <motorcfglcl+0x1>
    3624:	80 93 b7 03 	sts	0x03B7, r24	; 0x8003b7 <motorcfglcl>
    3628:	62 e0       	ldi	r22, 0x02	; 2
    362a:	81 81       	ldd	r24, Z+1	; 0x01
    362c:	0e 94 fa 1e 	call	0x3df4	; 0x3df4 <gpioInit>
    3630:	e0 91 b7 03 	lds	r30, 0x03B7	; 0x8003b7 <motorcfglcl>
    3634:	f0 91 b8 03 	lds	r31, 0x03B8	; 0x8003b8 <motorcfglcl+0x1>
    3638:	62 e0       	ldi	r22, 0x02	; 2
    363a:	82 81       	ldd	r24, Z+2	; 0x02
    363c:	0e 94 fa 1e 	call	0x3df4	; 0x3df4 <gpioInit>
    3640:	e0 91 b7 03 	lds	r30, 0x03B7	; 0x8003b7 <motorcfglcl>
    3644:	f0 91 b8 03 	lds	r31, 0x03B8	; 0x8003b8 <motorcfglcl+0x1>
    3648:	63 e0       	ldi	r22, 0x03	; 3
    364a:	80 81       	ld	r24, Z
    364c:	0e 94 fa 1e 	call	0x3df4	; 0x3df4 <gpioInit>
    3650:	e0 91 b7 03 	lds	r30, 0x03B7	; 0x8003b7 <motorcfglcl>
    3654:	f0 91 b8 03 	lds	r31, 0x03B8	; 0x8003b8 <motorcfglcl+0x1>
    3658:	62 e0       	ldi	r22, 0x02	; 2
    365a:	84 81       	ldd	r24, Z+4	; 0x04
    365c:	0e 94 fa 1e 	call	0x3df4	; 0x3df4 <gpioInit>
    3660:	e0 91 b7 03 	lds	r30, 0x03B7	; 0x8003b7 <motorcfglcl>
    3664:	f0 91 b8 03 	lds	r31, 0x03B8	; 0x8003b8 <motorcfglcl+0x1>
    3668:	62 e0       	ldi	r22, 0x02	; 2
    366a:	85 81       	ldd	r24, Z+5	; 0x05
    366c:	0e 94 fa 1e 	call	0x3df4	; 0x3df4 <gpioInit>
    3670:	e0 91 b7 03 	lds	r30, 0x03B7	; 0x8003b7 <motorcfglcl>
    3674:	f0 91 b8 03 	lds	r31, 0x03B8	; 0x8003b8 <motorcfglcl+0x1>
    3678:	63 e0       	ldi	r22, 0x03	; 3
    367a:	83 81       	ldd	r24, Z+3	; 0x03
    367c:	0e 94 fa 1e 	call	0x3df4	; 0x3df4 <gpioInit>
    3680:	40 e0       	ldi	r20, 0x00	; 0
    3682:	60 e0       	ldi	r22, 0x00	; 0
    3684:	80 e0       	ldi	r24, 0x00	; 0
    3686:	0c 94 7d 1a 	jmp	0x34fa	; 0x34fa <Motor>

0000368a <oled_init>:
    368a:	1f 93       	push	r17
    368c:	cf 93       	push	r28
    368e:	df 93       	push	r29
    3690:	d8 2f       	mov	r29, r24
    3692:	16 2f       	mov	r17, r22
    3694:	c4 2f       	mov	r28, r20
    3696:	62 e0       	ldi	r22, 0x02	; 2
    3698:	84 2f       	mov	r24, r20
    369a:	0e 94 fa 1e 	call	0x3df4	; 0x3df4 <gpioInit>
    369e:	60 e0       	ldi	r22, 0x00	; 0
    36a0:	8c 2f       	mov	r24, r28
    36a2:	0e 94 f0 1d 	call	0x3be0	; 0x3be0 <gpioSet>
    36a6:	6a e0       	ldi	r22, 0x0A	; 10
    36a8:	70 e0       	ldi	r23, 0x00	; 0
    36aa:	80 e0       	ldi	r24, 0x00	; 0
    36ac:	90 e0       	ldi	r25, 0x00	; 0
    36ae:	0e 94 45 20 	call	0x408a	; 0x408a <hal_delay>
    36b2:	61 e0       	ldi	r22, 0x01	; 1
    36b4:	8c 2f       	mov	r24, r28
    36b6:	0e 94 f0 1d 	call	0x3be0	; 0x3be0 <gpioSet>
    36ba:	6a e0       	ldi	r22, 0x0A	; 10
    36bc:	70 e0       	ldi	r23, 0x00	; 0
    36be:	80 e0       	ldi	r24, 0x00	; 0
    36c0:	90 e0       	ldi	r25, 0x00	; 0
    36c2:	0e 94 45 20 	call	0x408a	; 0x408a <hal_delay>
    36c6:	61 2f       	mov	r22, r17
    36c8:	8d 2f       	mov	r24, r29
    36ca:	0e 94 20 0d 	call	0x1a40	; 0x1a40 <ssd1306_init_i2c>
    36ce:	40 e0       	ldi	r20, 0x00	; 0
    36d0:	68 e7       	ldi	r22, 0x78	; 120
    36d2:	82 e0       	ldi	r24, 0x02	; 2
    36d4:	df 91       	pop	r29
    36d6:	cf 91       	pop	r28
    36d8:	1f 91       	pop	r17
    36da:	0c 94 3b 0d 	jmp	0x1a76	; 0x1a76 <ssd1306_begin>

000036de <oled_print>:
    36de:	ef 92       	push	r14
    36e0:	ff 92       	push	r15
    36e2:	0f 93       	push	r16
    36e4:	1f 93       	push	r17
    36e6:	cf 93       	push	r28
    36e8:	df 93       	push	r29
    36ea:	ec 01       	movw	r28, r24
    36ec:	86 2f       	mov	r24, r22
    36ee:	f4 2e       	mov	r15, r20
    36f0:	12 2f       	mov	r17, r18
    36f2:	0e 94 49 1a 	call	0x3492	; 0x3492 <ssd1306_set_textsize>
    36f6:	8f 2d       	mov	r24, r15
    36f8:	90 e0       	ldi	r25, 0x00	; 0
    36fa:	0e 94 4f 1a 	call	0x349e	; 0x349e <ssd1306_set_textcolor>
    36fe:	60 2f       	mov	r22, r16
    3700:	70 e0       	ldi	r23, 0x00	; 0
    3702:	81 2f       	mov	r24, r17
    3704:	90 e0       	ldi	r25, 0x00	; 0
    3706:	0e 94 36 1a 	call	0x346c	; 0x346c <ssd1306_set_cursor>
    370a:	10 e0       	ldi	r17, 0x00	; 0
    370c:	00 e0       	ldi	r16, 0x00	; 0
    370e:	fe 01       	movw	r30, r28
    3710:	01 90       	ld	r0, Z+
    3712:	00 20       	and	r0, r0
    3714:	e9 f7       	brne	.-6      	; 0x3710 <oled_print+0x32>
    3716:	31 97       	sbiw	r30, 0x01	; 1
    3718:	ec 1b       	sub	r30, r28
    371a:	fd 0b       	sbc	r31, r29
    371c:	0e 17       	cp	r16, r30
    371e:	1f 07       	cpc	r17, r31
    3720:	50 f0       	brcs	.+20     	; 0x3736 <oled_print+0x58>
    3722:	ee 20       	and	r14, r14
    3724:	89 f0       	breq	.+34     	; 0x3748 <oled_print+0x6a>
    3726:	df 91       	pop	r29
    3728:	cf 91       	pop	r28
    372a:	1f 91       	pop	r17
    372c:	0f 91       	pop	r16
    372e:	ff 90       	pop	r15
    3730:	ef 90       	pop	r14
    3732:	0c 94 1f 0f 	jmp	0x1e3e	; 0x1e3e <ssd1306_display>
    3736:	fe 01       	movw	r30, r28
    3738:	e0 0f       	add	r30, r16
    373a:	f1 1f       	adc	r31, r17
    373c:	80 81       	ld	r24, Z
    373e:	0e 94 c8 19 	call	0x3390	; 0x3390 <ssd1306_write>
    3742:	0f 5f       	subi	r16, 0xFF	; 255
    3744:	1f 4f       	sbci	r17, 0xFF	; 255
    3746:	e3 cf       	rjmp	.-58     	; 0x370e <oled_print+0x30>
    3748:	df 91       	pop	r29
    374a:	cf 91       	pop	r28
    374c:	1f 91       	pop	r17
    374e:	0f 91       	pop	r16
    3750:	ff 90       	pop	r15
    3752:	ef 90       	pop	r14
    3754:	08 95       	ret

00003756 <oled_clear>:
    3756:	0c 94 50 0f 	jmp	0x1ea0	; 0x1ea0 <ssd1306_clear_display>

0000375a <oled_fill>:
    375a:	81 e0       	ldi	r24, 0x01	; 1
    375c:	90 e0       	ldi	r25, 0x00	; 0
    375e:	0c 94 49 14 	jmp	0x2892	; 0x2892 <ssd1306_fill_screen>

00003762 <preinit_range_sensor>:
    3762:	cf 93       	push	r28
    3764:	df 93       	push	r29
    3766:	ec 01       	movw	r28, r24
    3768:	62 e0       	ldi	r22, 0x02	; 2
    376a:	88 81       	ld	r24, Y
    376c:	0e 94 fa 1e 	call	0x3df4	; 0x3df4 <gpioInit>
    3770:	60 e0       	ldi	r22, 0x00	; 0
    3772:	89 81       	ldd	r24, Y+1	; 0x01
    3774:	0e 94 fa 1e 	call	0x3df4	; 0x3df4 <gpioInit>
    3778:	60 e0       	ldi	r22, 0x00	; 0
    377a:	88 81       	ld	r24, Y
    377c:	df 91       	pop	r29
    377e:	cf 91       	pop	r28
    3780:	0c 94 f0 1d 	jmp	0x3be0	; 0x3be0 <gpioSet>

00003784 <init_range_sensor>:
    3784:	0f 93       	push	r16
    3786:	1f 93       	push	r17
    3788:	cf 93       	push	r28
    378a:	df 93       	push	r29
    378c:	00 d0       	rcall	.+0      	; 0x378e <init_range_sensor+0xa>
    378e:	00 d0       	rcall	.+0      	; 0x3790 <init_range_sensor+0xc>
    3790:	00 d0       	rcall	.+0      	; 0x3792 <init_range_sensor+0xe>
    3792:	cd b7       	in	r28, 0x3d	; 61
    3794:	de b7       	in	r29, 0x3e	; 62
    3796:	8c 01       	movw	r16, r24
    3798:	6d 83       	std	Y+5, r22	; 0x05
    379a:	7e 83       	std	Y+6, r23	; 0x06
    379c:	05 96       	adiw	r24, 0x05	; 5
    379e:	0e 94 f1 0c 	call	0x19e2	; 0x19e2 <setvl53l0xinstance>
    37a2:	61 e0       	ldi	r22, 0x01	; 1
    37a4:	d8 01       	movw	r26, r16
    37a6:	8c 91       	ld	r24, X
    37a8:	0e 94 f0 1d 	call	0x3be0	; 0x3be0 <gpioSet>
    37ac:	81 e0       	ldi	r24, 0x01	; 1
    37ae:	0e 94 d9 07 	call	0xfb2	; 0xfb2 <initVL53L0X>
    37b2:	ad 81       	ldd	r26, Y+5	; 0x05
    37b4:	be 81       	ldd	r27, Y+6	; 0x06
    37b6:	14 96       	adiw	r26, 0x04	; 4
    37b8:	2d 91       	ld	r18, X+
    37ba:	3d 91       	ld	r19, X+
    37bc:	4d 91       	ld	r20, X+
    37be:	5c 91       	ld	r21, X
    37c0:	17 97       	sbiw	r26, 0x07	; 7
    37c2:	29 83       	std	Y+1, r18	; 0x01
    37c4:	3a 83       	std	Y+2, r19	; 0x02
    37c6:	4b 83       	std	Y+3, r20	; 0x03
    37c8:	5c 83       	std	Y+4, r21	; 0x04
    37ca:	ca 01       	movw	r24, r20
    37cc:	b9 01       	movw	r22, r18
    37ce:	0e 94 28 06 	call	0xc50	; 0xc50 <setSignalRateLimit>
    37d2:	ed 81       	ldd	r30, Y+5	; 0x05
    37d4:	fe 81       	ldd	r31, Y+6	; 0x06
    37d6:	61 85       	ldd	r22, Z+9	; 0x09
    37d8:	80 e0       	ldi	r24, 0x00	; 0
    37da:	0e 94 23 0a 	call	0x1446	; 0x1446 <setVcselPulsePeriod>
    37de:	ad 81       	ldd	r26, Y+5	; 0x05
    37e0:	be 81       	ldd	r27, Y+6	; 0x06
    37e2:	18 96       	adiw	r26, 0x08	; 8
    37e4:	6c 91       	ld	r22, X
    37e6:	81 e0       	ldi	r24, 0x01	; 1
    37e8:	0e 94 23 0a 	call	0x1446	; 0x1446 <setVcselPulsePeriod>
    37ec:	ed 81       	ldd	r30, Y+5	; 0x05
    37ee:	fe 81       	ldd	r31, Y+6	; 0x06
    37f0:	20 81       	ld	r18, Z
    37f2:	31 81       	ldd	r19, Z+1	; 0x01
    37f4:	a8 ee       	ldi	r26, 0xE8	; 232
    37f6:	b3 e0       	ldi	r27, 0x03	; 3
    37f8:	0e 94 35 21 	call	0x426a	; 0x426a <__umulhisi3>
    37fc:	69 83       	std	Y+1, r22	; 0x01
    37fe:	7a 83       	std	Y+2, r23	; 0x02
    3800:	8b 83       	std	Y+3, r24	; 0x03
    3802:	9c 83       	std	Y+4, r25	; 0x04
    3804:	0e 94 b5 06 	call	0xd6a	; 0xd6a <setMeasurementTimingBudget>
    3808:	d8 01       	movw	r26, r16
    380a:	12 96       	adiw	r26, 0x02	; 2
    380c:	8c 91       	ld	r24, X
    380e:	0e 94 22 04 	call	0x844	; 0x844 <setAddress>
    3812:	ed 81       	ldd	r30, Y+5	; 0x05
    3814:	fe 81       	ldd	r31, Y+6	; 0x06
    3816:	82 81       	ldd	r24, Z+2	; 0x02
    3818:	93 81       	ldd	r25, Z+3	; 0x03
    381a:	9c 01       	movw	r18, r24
    381c:	50 e0       	ldi	r21, 0x00	; 0
    381e:	40 e0       	ldi	r20, 0x00	; 0
    3820:	29 83       	std	Y+1, r18	; 0x01
    3822:	3a 83       	std	Y+2, r19	; 0x02
    3824:	4b 83       	std	Y+3, r20	; 0x03
    3826:	5c 83       	std	Y+4, r21	; 0x04
    3828:	ca 01       	movw	r24, r20
    382a:	b9 01       	movw	r22, r18
    382c:	26 96       	adiw	r28, 0x06	; 6
    382e:	0f b6       	in	r0, 0x3f	; 63
    3830:	f8 94       	cli
    3832:	de bf       	out	0x3e, r29	; 62
    3834:	0f be       	out	0x3f, r0	; 63
    3836:	cd bf       	out	0x3d, r28	; 61
    3838:	df 91       	pop	r29
    383a:	cf 91       	pop	r28
    383c:	1f 91       	pop	r17
    383e:	0f 91       	pop	r16
    3840:	0c 94 32 0b 	jmp	0x1664	; 0x1664 <startContinuous>

00003844 <get_distance>:
    3844:	cf 93       	push	r28
    3846:	df 93       	push	r29
    3848:	ec 01       	movw	r28, r24
    384a:	05 96       	adiw	r24, 0x05	; 5
    384c:	0e 94 f1 0c 	call	0x19e2	; 0x19e2 <setvl53l0xinstance>
    3850:	0e 94 11 0c 	call	0x1822	; 0x1822 <checkRangeContinousSensor>
    3854:	88 23       	and	r24, r24
    3856:	21 f0       	breq	.+8      	; 0x3860 <get_distance+0x1c>
    3858:	0e 94 53 0c 	call	0x18a6	; 0x18a6 <readRangeContinousSensor>
    385c:	9c 83       	std	Y+4, r25	; 0x04
    385e:	8b 83       	std	Y+3, r24	; 0x03
    3860:	8b 81       	ldd	r24, Y+3	; 0x03
    3862:	9c 81       	ldd	r25, Y+4	; 0x04
    3864:	df 91       	pop	r29
    3866:	cf 91       	pop	r28
    3868:	08 95       	ret

0000386a <init_analog_sensor>:
    386a:	61 e0       	ldi	r22, 0x01	; 1
    386c:	0c 94 fa 1e 	jmp	0x3df4	; 0x3df4 <gpioInit>

00003870 <get_analog_value>:
    3870:	0c 94 df 1e 	jmp	0x3dbe	; 0x3dbe <adcGet>

00003874 <led>:
    3874:	98 2f       	mov	r25, r24
    3876:	86 2f       	mov	r24, r22
    3878:	69 2f       	mov	r22, r25
    387a:	0c 94 f0 1d 	jmp	0x3be0	; 0x3be0 <gpioSet>

0000387e <init_led>:
    387e:	62 e0       	ldi	r22, 0x02	; 2
    3880:	0c 94 fa 1e 	jmp	0x3df4	; 0x3df4 <gpioInit>

00003884 <miniOS_init>:
    3884:	fc 01       	movw	r30, r24
    3886:	81 81       	ldd	r24, Z+1	; 0x01
    3888:	80 83       	st	Z, r24
    388a:	08 95       	ret

0000388c <init_range_sensors>:
    388c:	0f 93       	push	r16
    388e:	1f 93       	push	r17
    3890:	cf 93       	push	r28
    3892:	df 93       	push	r29
    3894:	cd b7       	in	r28, 0x3d	; 61
    3896:	de b7       	in	r29, 0x3e	; 62
    3898:	2a 97       	sbiw	r28, 0x0a	; 10
    389a:	0f b6       	in	r0, 0x3f	; 63
    389c:	f8 94       	cli
    389e:	de bf       	out	0x3e, r29	; 62
    38a0:	0f be       	out	0x3f, r0	; 63
    38a2:	cd bf       	out	0x3d, r28	; 61
    38a4:	8a e0       	ldi	r24, 0x0A	; 10
    38a6:	90 e0       	ldi	r25, 0x00	; 0
    38a8:	a0 e0       	ldi	r26, 0x00	; 0
    38aa:	b0 e0       	ldi	r27, 0x00	; 0
    38ac:	8d 83       	std	Y+5, r24	; 0x05
    38ae:	9e 83       	std	Y+6, r25	; 0x06
    38b0:	af 83       	std	Y+7, r26	; 0x07
    38b2:	b8 87       	std	Y+8, r27	; 0x08
    38b4:	3e e0       	ldi	r19, 0x0E	; 14
    38b6:	39 87       	std	Y+9, r19	; 0x09
    38b8:	82 e1       	ldi	r24, 0x12	; 18
    38ba:	8a 87       	std	Y+10, r24	; 0x0a
    38bc:	44 e6       	ldi	r20, 0x64	; 100
    38be:	50 e0       	ldi	r21, 0x00	; 0
    38c0:	5a 83       	std	Y+2, r21	; 0x02
    38c2:	49 83       	std	Y+1, r20	; 0x01
    38c4:	1c 82       	std	Y+4, r1	; 0x04
    38c6:	1b 82       	std	Y+3, r1	; 0x03
    38c8:	90 e5       	ldi	r25, 0x50	; 80
    38ca:	90 93 64 03 	sts	0x0364, r25	; 0x800364 <_sensors+0x2>
    38ce:	9f e0       	ldi	r25, 0x0F	; 15
    38d0:	90 93 62 03 	sts	0x0362, r25	; 0x800362 <_sensors>
    38d4:	2f ef       	ldi	r18, 0xFF	; 255
    38d6:	20 93 63 03 	sts	0x0363, r18	; 0x800363 <_sensors+0x1>
    38da:	93 e1       	ldi	r25, 0x13	; 19
    38dc:	90 93 72 03 	sts	0x0372, r25	; 0x800372 <_sensors+0x10>
    38e0:	80 93 73 03 	sts	0x0373, r24	; 0x800373 <_sensors+0x11>
    38e4:	41 e5       	ldi	r20, 0x51	; 81
    38e6:	40 93 76 03 	sts	0x0376, r20	; 0x800376 <_sensors+0x14>
    38ea:	4c e0       	ldi	r20, 0x0C	; 12
    38ec:	40 93 74 03 	sts	0x0374, r20	; 0x800374 <_sensors+0x12>
    38f0:	20 93 75 03 	sts	0x0375, r18	; 0x800375 <_sensors+0x13>
    38f4:	90 93 84 03 	sts	0x0384, r25	; 0x800384 <_sensors+0x22>
    38f8:	80 93 85 03 	sts	0x0385, r24	; 0x800385 <_sensors+0x23>
    38fc:	42 e5       	ldi	r20, 0x52	; 82
    38fe:	40 93 88 03 	sts	0x0388, r20	; 0x800388 <_sensors+0x26>
    3902:	41 e1       	ldi	r20, 0x11	; 17
    3904:	40 93 86 03 	sts	0x0386, r20	; 0x800386 <_sensors+0x24>
    3908:	20 93 87 03 	sts	0x0387, r18	; 0x800387 <_sensors+0x25>
    390c:	90 93 96 03 	sts	0x0396, r25	; 0x800396 <_sensors+0x34>
    3910:	80 93 97 03 	sts	0x0397, r24	; 0x800397 <_sensors+0x35>
    3914:	43 e5       	ldi	r20, 0x53	; 83
    3916:	40 93 9a 03 	sts	0x039A, r20	; 0x80039a <_sensors+0x38>
    391a:	30 93 98 03 	sts	0x0398, r19	; 0x800398 <_sensors+0x36>
    391e:	20 93 99 03 	sts	0x0399, r18	; 0x800399 <_sensors+0x37>
    3922:	90 93 a8 03 	sts	0x03A8, r25	; 0x8003a8 <_sensors+0x46>
    3926:	80 93 a9 03 	sts	0x03A9, r24	; 0x8003a9 <_sensors+0x47>
    392a:	82 e6       	ldi	r24, 0x62	; 98
    392c:	93 e0       	ldi	r25, 0x03	; 3
    392e:	0e 94 b1 1b 	call	0x3762	; 0x3762 <preinit_range_sensor>
    3932:	84 e7       	ldi	r24, 0x74	; 116
    3934:	93 e0       	ldi	r25, 0x03	; 3
    3936:	0e 94 b1 1b 	call	0x3762	; 0x3762 <preinit_range_sensor>
    393a:	86 e8       	ldi	r24, 0x86	; 134
    393c:	93 e0       	ldi	r25, 0x03	; 3
    393e:	0e 94 b1 1b 	call	0x3762	; 0x3762 <preinit_range_sensor>
    3942:	88 e9       	ldi	r24, 0x98	; 152
    3944:	93 e0       	ldi	r25, 0x03	; 3
    3946:	0e 94 b1 1b 	call	0x3762	; 0x3762 <preinit_range_sensor>
    394a:	02 e6       	ldi	r16, 0x62	; 98
    394c:	13 e0       	ldi	r17, 0x03	; 3
    394e:	be 01       	movw	r22, r28
    3950:	6f 5f       	subi	r22, 0xFF	; 255
    3952:	7f 4f       	sbci	r23, 0xFF	; 255
    3954:	c8 01       	movw	r24, r16
    3956:	0e 94 c2 1b 	call	0x3784	; 0x3784 <init_range_sensor>
    395a:	c8 01       	movw	r24, r16
    395c:	0e 94 22 1c 	call	0x3844	; 0x3844 <get_distance>
    3960:	0e 5e       	subi	r16, 0xEE	; 238
    3962:	1f 4f       	sbci	r17, 0xFF	; 255
    3964:	83 e0       	ldi	r24, 0x03	; 3
    3966:	0a 3a       	cpi	r16, 0xAA	; 170
    3968:	18 07       	cpc	r17, r24
    396a:	89 f7       	brne	.-30     	; 0x394e <init_range_sensors+0xc2>
    396c:	2a 96       	adiw	r28, 0x0a	; 10
    396e:	0f b6       	in	r0, 0x3f	; 63
    3970:	f8 94       	cli
    3972:	de bf       	out	0x3e, r29	; 62
    3974:	0f be       	out	0x3f, r0	; 63
    3976:	cd bf       	out	0x3d, r28	; 61
    3978:	df 91       	pop	r29
    397a:	cf 91       	pop	r28
    397c:	1f 91       	pop	r17
    397e:	0f 91       	pop	r16
    3980:	08 95       	ret

00003982 <check_range_sensors>:
    3982:	82 e6       	ldi	r24, 0x62	; 98
    3984:	93 e0       	ldi	r25, 0x03	; 3
    3986:	0e 94 22 1c 	call	0x3844	; 0x3844 <get_distance>
    398a:	84 e7       	ldi	r24, 0x74	; 116
    398c:	93 e0       	ldi	r25, 0x03	; 3
    398e:	0e 94 22 1c 	call	0x3844	; 0x3844 <get_distance>
    3992:	86 e8       	ldi	r24, 0x86	; 134
    3994:	93 e0       	ldi	r25, 0x03	; 3
    3996:	0e 94 22 1c 	call	0x3844	; 0x3844 <get_distance>
    399a:	88 e9       	ldi	r24, 0x98	; 152
    399c:	93 e0       	ldi	r25, 0x03	; 3
    399e:	0c 94 22 1c 	jmp	0x3844	; 0x3844 <get_distance>

000039a2 <init_analog_sensors>:
    39a2:	80 e1       	ldi	r24, 0x10	; 16
    39a4:	0c 94 35 1c 	jmp	0x386a	; 0x386a <init_analog_sensor>

000039a8 <check_analog_sensors>:
    39a8:	80 e1       	ldi	r24, 0x10	; 16
    39aa:	0e 94 38 1c 	call	0x3870	; 0x3870 <get_analog_value>
    39ae:	9c 01       	movw	r18, r24
    39b0:	80 91 5a 03 	lds	r24, 0x035A	; 0x80035a <_oldval.2790>
    39b4:	90 91 5b 03 	lds	r25, 0x035B	; 0x80035b <_oldval.2790+0x1>
    39b8:	82 17       	cp	r24, r18
    39ba:	93 07       	cpc	r25, r19
    39bc:	69 f0       	breq	.+26     	; 0x39d8 <check_analog_sensors+0x30>
    39be:	30 93 5b 03 	sts	0x035B, r19	; 0x80035b <_oldval.2790+0x1>
    39c2:	20 93 5a 03 	sts	0x035A, r18	; 0x80035a <_oldval.2790>
    39c6:	6d e0       	ldi	r22, 0x0D	; 13
    39c8:	25 3f       	cpi	r18, 0xF5	; 245
    39ca:	31 40       	sbci	r19, 0x01	; 1
    39cc:	18 f0       	brcs	.+6      	; 0x39d4 <check_analog_sensors+0x2c>
    39ce:	81 e0       	ldi	r24, 0x01	; 1
    39d0:	0c 94 3a 1c 	jmp	0x3874	; 0x3874 <led>
    39d4:	80 e0       	ldi	r24, 0x00	; 0
    39d6:	fc cf       	rjmp	.-8      	; 0x39d0 <check_analog_sensors+0x28>
    39d8:	08 95       	ret

000039da <motorcfg_init>:
    39da:	ec e5       	ldi	r30, 0x5C	; 92
    39dc:	f3 e0       	ldi	r31, 0x03	; 3
    39de:	85 e0       	ldi	r24, 0x05	; 5
    39e0:	80 83       	st	Z, r24
    39e2:	82 e0       	ldi	r24, 0x02	; 2
    39e4:	81 83       	std	Z+1, r24	; 0x01
    39e6:	84 e0       	ldi	r24, 0x04	; 4
    39e8:	82 83       	std	Z+2, r24	; 0x02
    39ea:	86 e0       	ldi	r24, 0x06	; 6
    39ec:	83 83       	std	Z+3, r24	; 0x03
    39ee:	88 e0       	ldi	r24, 0x08	; 8
    39f0:	84 83       	std	Z+4, r24	; 0x04
    39f2:	87 e0       	ldi	r24, 0x07	; 7
    39f4:	85 83       	std	Z+5, r24	; 0x05
    39f6:	cf 01       	movw	r24, r30
    39f8:	0e 94 0f 1b 	call	0x361e	; 0x361e <Motor_Init>
    39fc:	40 e0       	ldi	r20, 0x00	; 0
    39fe:	60 e0       	ldi	r22, 0x00	; 0
    3a00:	80 e0       	ldi	r24, 0x00	; 0
    3a02:	0c 94 7d 1a 	jmp	0x34fa	; 0x34fa <Motor>

00003a06 <my_init>:
    3a06:	ef 92       	push	r14
    3a08:	0f 93       	push	r16
    3a0a:	0e 94 b1 20 	call	0x4162	; 0x4162 <init_hal>
    3a0e:	8d e0       	ldi	r24, 0x0D	; 13
    3a10:	0e 94 3f 1c 	call	0x387e	; 0x387e <init_led>
    3a14:	6d e0       	ldi	r22, 0x0D	; 13
    3a16:	81 e0       	ldi	r24, 0x01	; 1
    3a18:	0e 94 3a 1c 	call	0x3874	; 0x3874 <led>
    3a1c:	e8 e5       	ldi	r30, 0x58	; 88
    3a1e:	f3 e0       	ldi	r31, 0x03	; 3
    3a20:	81 e0       	ldi	r24, 0x01	; 1
    3a22:	80 83       	st	Z, r24
    3a24:	83 e0       	ldi	r24, 0x03	; 3
    3a26:	81 83       	std	Z+1, r24	; 0x01
    3a28:	cf 01       	movw	r24, r30
    3a2a:	0e 94 42 1c 	call	0x3884	; 0x3884 <miniOS_init>
    3a2e:	0e 94 ed 1c 	call	0x39da	; 0x39da <motorcfg_init>
    3a32:	4f ef       	ldi	r20, 0xFF	; 255
    3a34:	62 e1       	ldi	r22, 0x12	; 18
    3a36:	83 e1       	ldi	r24, 0x13	; 19
    3a38:	0e 94 45 1b 	call	0x368a	; 0x368a <oled_init>
    3a3c:	0e 94 ab 1b 	call	0x3756	; 0x3756 <oled_clear>
    3a40:	ee 24       	eor	r14, r14
    3a42:	e3 94       	inc	r14
    3a44:	0a e0       	ldi	r16, 0x0A	; 10
    3a46:	2a e0       	ldi	r18, 0x0A	; 10
    3a48:	41 e0       	ldi	r20, 0x01	; 1
    3a4a:	62 e0       	ldi	r22, 0x02	; 2
    3a4c:	83 e1       	ldi	r24, 0x13	; 19
    3a4e:	93 e0       	ldi	r25, 0x03	; 3
    3a50:	0e 94 6f 1b 	call	0x36de	; 0x36de <oled_print>
    3a54:	68 ee       	ldi	r22, 0xE8	; 232
    3a56:	73 e0       	ldi	r23, 0x03	; 3
    3a58:	80 e0       	ldi	r24, 0x00	; 0
    3a5a:	90 e0       	ldi	r25, 0x00	; 0
    3a5c:	0e 94 45 20 	call	0x408a	; 0x408a <hal_delay>
    3a60:	0e 94 46 1c 	call	0x388c	; 0x388c <init_range_sensors>
    3a64:	0f 91       	pop	r16
    3a66:	ef 90       	pop	r14
    3a68:	0c 94 d1 1c 	jmp	0x39a2	; 0x39a2 <init_analog_sensors>

00003a6c <my_loop>:
    3a6c:	8f 92       	push	r8
    3a6e:	9f 92       	push	r9
    3a70:	af 92       	push	r10
    3a72:	bf 92       	push	r11
    3a74:	ef 92       	push	r14
    3a76:	0f 93       	push	r16
    3a78:	cf 93       	push	r28
    3a7a:	df 93       	push	r29
    3a7c:	cd b7       	in	r28, 0x3d	; 61
    3a7e:	de b7       	in	r29, 0x3e	; 62
    3a80:	60 97       	sbiw	r28, 0x10	; 16
    3a82:	0f b6       	in	r0, 0x3f	; 63
    3a84:	f8 94       	cli
    3a86:	de bf       	out	0x3e, r29	; 62
    3a88:	0f be       	out	0x3f, r0	; 63
    3a8a:	cd bf       	out	0x3d, r28	; 61
    3a8c:	0e 94 c1 1c 	call	0x3982	; 0x3982 <check_range_sensors>
    3a90:	0e 94 d4 1c 	call	0x39a8	; 0x39a8 <check_analog_sensors>
    3a94:	0e 94 f2 1f 	call	0x3fe4	; 0x3fe4 <hal_millis>
    3a98:	4b 01       	movw	r8, r22
    3a9a:	5c 01       	movw	r10, r24
    3a9c:	0e 94 ab 1b 	call	0x3756	; 0x3756 <oled_clear>
    3aa0:	80 91 54 03 	lds	r24, 0x0354	; 0x800354 <_lasttime.2800>
    3aa4:	90 91 55 03 	lds	r25, 0x0355	; 0x800355 <_lasttime.2800+0x1>
    3aa8:	a0 91 56 03 	lds	r26, 0x0356	; 0x800356 <_lasttime.2800+0x2>
    3aac:	b0 91 57 03 	lds	r27, 0x0357	; 0x800357 <_lasttime.2800+0x3>
    3ab0:	a5 01       	movw	r20, r10
    3ab2:	94 01       	movw	r18, r8
    3ab4:	28 1b       	sub	r18, r24
    3ab6:	39 0b       	sbc	r19, r25
    3ab8:	4a 0b       	sbc	r20, r26
    3aba:	5b 0b       	sbc	r21, r27
    3abc:	da 01       	movw	r26, r20
    3abe:	c9 01       	movw	r24, r18
    3ac0:	bf 93       	push	r27
    3ac2:	4f 93       	push	r20
    3ac4:	9f 93       	push	r25
    3ac6:	2f 93       	push	r18
    3ac8:	8c e1       	ldi	r24, 0x1C	; 28
    3aca:	93 e0       	ldi	r25, 0x03	; 3
    3acc:	9f 93       	push	r25
    3ace:	8f 93       	push	r24
    3ad0:	41 e0       	ldi	r20, 0x01	; 1
    3ad2:	50 e0       	ldi	r21, 0x00	; 0
    3ad4:	4c 0f       	add	r20, r28
    3ad6:	5d 1f       	adc	r21, r29
    3ad8:	5f 93       	push	r21
    3ada:	4f 93       	push	r20
    3adc:	0e 94 4f 21 	call	0x429e	; 0x429e <sprintf>
    3ae0:	ee 24       	eor	r14, r14
    3ae2:	e3 94       	inc	r14
    3ae4:	0a e0       	ldi	r16, 0x0A	; 10
    3ae6:	2a e0       	ldi	r18, 0x0A	; 10
    3ae8:	41 e0       	ldi	r20, 0x01	; 1
    3aea:	61 e0       	ldi	r22, 0x01	; 1
    3aec:	ce 01       	movw	r24, r28
    3aee:	01 96       	adiw	r24, 0x01	; 1
    3af0:	0e 94 6f 1b 	call	0x36de	; 0x36de <oled_print>
    3af4:	80 91 50 03 	lds	r24, 0x0350	; 0x800350 <_timeafterdisplay.2802>
    3af8:	90 91 51 03 	lds	r25, 0x0351	; 0x800351 <_timeafterdisplay.2802+0x1>
    3afc:	a0 91 52 03 	lds	r26, 0x0352	; 0x800352 <_timeafterdisplay.2802+0x2>
    3b00:	b0 91 53 03 	lds	r27, 0x0353	; 0x800353 <_timeafterdisplay.2802+0x3>
    3b04:	a5 01       	movw	r20, r10
    3b06:	94 01       	movw	r18, r8
    3b08:	28 1b       	sub	r18, r24
    3b0a:	39 0b       	sbc	r19, r25
    3b0c:	4a 0b       	sbc	r20, r26
    3b0e:	5b 0b       	sbc	r21, r27
    3b10:	da 01       	movw	r26, r20
    3b12:	c9 01       	movw	r24, r18
    3b14:	bf 93       	push	r27
    3b16:	4f 93       	push	r20
    3b18:	9f 93       	push	r25
    3b1a:	2f 93       	push	r18
    3b1c:	87 e2       	ldi	r24, 0x27	; 39
    3b1e:	93 e0       	ldi	r25, 0x03	; 3
    3b20:	9f 93       	push	r25
    3b22:	8f 93       	push	r24
    3b24:	41 e0       	ldi	r20, 0x01	; 1
    3b26:	50 e0       	ldi	r21, 0x00	; 0
    3b28:	4c 0f       	add	r20, r28
    3b2a:	5d 1f       	adc	r21, r29
    3b2c:	5f 93       	push	r21
    3b2e:	4f 93       	push	r20
    3b30:	0e 94 4f 21 	call	0x429e	; 0x429e <sprintf>
    3b34:	04 e1       	ldi	r16, 0x14	; 20
    3b36:	2a e0       	ldi	r18, 0x0A	; 10
    3b38:	41 e0       	ldi	r20, 0x01	; 1
    3b3a:	61 e0       	ldi	r22, 0x01	; 1
    3b3c:	ce 01       	movw	r24, r28
    3b3e:	01 96       	adiw	r24, 0x01	; 1
    3b40:	0e 94 6f 1b 	call	0x36de	; 0x36de <oled_print>
    3b44:	80 92 54 03 	sts	0x0354, r8	; 0x800354 <_lasttime.2800>
    3b48:	90 92 55 03 	sts	0x0355, r9	; 0x800355 <_lasttime.2800+0x1>
    3b4c:	a0 92 56 03 	sts	0x0356, r10	; 0x800356 <_lasttime.2800+0x2>
    3b50:	b0 92 57 03 	sts	0x0357, r11	; 0x800357 <_lasttime.2800+0x3>
    3b54:	0e 94 f2 1f 	call	0x3fe4	; 0x3fe4 <hal_millis>
    3b58:	60 93 50 03 	sts	0x0350, r22	; 0x800350 <_timeafterdisplay.2802>
    3b5c:	70 93 51 03 	sts	0x0351, r23	; 0x800351 <_timeafterdisplay.2802+0x1>
    3b60:	80 93 52 03 	sts	0x0352, r24	; 0x800352 <_timeafterdisplay.2802+0x2>
    3b64:	90 93 53 03 	sts	0x0353, r25	; 0x800353 <_timeafterdisplay.2802+0x3>
    3b68:	0f b6       	in	r0, 0x3f	; 63
    3b6a:	f8 94       	cli
    3b6c:	de bf       	out	0x3e, r29	; 62
    3b6e:	0f be       	out	0x3f, r0	; 63
    3b70:	cd bf       	out	0x3d, r28	; 61
    3b72:	60 96       	adiw	r28, 0x10	; 16
    3b74:	0f b6       	in	r0, 0x3f	; 63
    3b76:	f8 94       	cli
    3b78:	de bf       	out	0x3e, r29	; 62
    3b7a:	0f be       	out	0x3f, r0	; 63
    3b7c:	cd bf       	out	0x3d, r28	; 61
    3b7e:	df 91       	pop	r29
    3b80:	cf 91       	pop	r28
    3b82:	0f 91       	pop	r16
    3b84:	ef 90       	pop	r14
    3b86:	bf 90       	pop	r11
    3b88:	af 90       	pop	r10
    3b8a:	9f 90       	pop	r9
    3b8c:	8f 90       	pop	r8
    3b8e:	08 95       	ret

00003b90 <main>:
    3b90:	0e 94 03 1d 	call	0x3a06	; 0x3a06 <my_init>
    3b94:	0e 94 36 1d 	call	0x3a6c	; 0x3a6c <my_loop>
    3b98:	fd cf       	rjmp	.-6      	; 0x3b94 <main+0x4>

00003b9a <yield>:
    3b9a:	08 95       	ret

00003b9c <gpio_to_timer>:
    3b9c:	83 50       	subi	r24, 0x03	; 3
    3b9e:	89 30       	cpi	r24, 0x09	; 9
    3ba0:	30 f4       	brcc	.+12     	; 0x3bae <gpio_to_timer+0x12>
    3ba2:	e8 2f       	mov	r30, r24
    3ba4:	f0 e0       	ldi	r31, 0x00	; 0
    3ba6:	ee 5c       	subi	r30, 0xCE	; 206
    3ba8:	fc 4f       	sbci	r31, 0xFC	; 252
    3baa:	80 81       	ld	r24, Z
    3bac:	08 95       	ret
    3bae:	82 e1       	ldi	r24, 0x12	; 18
    3bb0:	08 95       	ret

00003bb2 <gpio_to_info>:
    3bb2:	88 30       	cpi	r24, 0x08	; 8
    3bb4:	30 f0       	brcs	.+12     	; 0x3bc2 <gpio_to_info+0x10>
    3bb6:	8e 30       	cpi	r24, 0x0E	; 14
    3bb8:	30 f0       	brcs	.+12     	; 0x3bc6 <gpio_to_info+0x14>
    3bba:	86 31       	cpi	r24, 0x16	; 22
    3bbc:	30 f4       	brcc	.+12     	; 0x3bca <gpio_to_info+0x18>
    3bbe:	82 e0       	ldi	r24, 0x02	; 2
    3bc0:	08 95       	ret
    3bc2:	80 e0       	ldi	r24, 0x00	; 0
    3bc4:	08 95       	ret
    3bc6:	81 e0       	ldi	r24, 0x01	; 1
    3bc8:	08 95       	ret
    3bca:	86 e0       	ldi	r24, 0x06	; 6
    3bcc:	08 95       	ret

00003bce <gpio_to_num>:
    3bce:	98 2f       	mov	r25, r24
    3bd0:	96 95       	lsr	r25
    3bd2:	96 95       	lsr	r25
    3bd4:	96 95       	lsr	r25
    3bd6:	28 ef       	ldi	r18, 0xF8	; 248
    3bd8:	92 9f       	mul	r25, r18
    3bda:	80 0d       	add	r24, r0
    3bdc:	11 24       	eor	r1, r1
    3bde:	08 95       	ret

00003be0 <gpioSet>:
    3be0:	cf 93       	push	r28
    3be2:	df 93       	push	r29
    3be4:	c8 2f       	mov	r28, r24
    3be6:	d6 2f       	mov	r29, r22
    3be8:	8f 3f       	cpi	r24, 0xFF	; 255
    3bea:	09 f1       	breq	.+66     	; 0x3c2e <gpioSet+0x4e>
    3bec:	0e 94 d9 1d 	call	0x3bb2	; 0x3bb2 <gpio_to_info>
    3bf0:	81 30       	cpi	r24, 0x01	; 1
    3bf2:	31 f1       	breq	.+76     	; 0x3c40 <gpioSet+0x60>
    3bf4:	82 30       	cpi	r24, 0x02	; 2
    3bf6:	09 f4       	brne	.+2      	; 0x3bfa <gpioSet+0x1a>
    3bf8:	42 c0       	rjmp	.+132    	; 0x3c7e <gpioSet+0x9e>
    3bfa:	81 11       	cpse	r24, r1
    3bfc:	18 c0       	rjmp	.+48     	; 0x3c2e <gpioSet+0x4e>
    3bfe:	8c 2f       	mov	r24, r28
    3c00:	86 95       	lsr	r24
    3c02:	86 95       	lsr	r24
    3c04:	86 95       	lsr	r24
    3c06:	2b b1       	in	r18, 0x0b	; 11
    3c08:	98 ef       	ldi	r25, 0xF8	; 248
    3c0a:	89 9f       	mul	r24, r25
    3c0c:	c0 0d       	add	r28, r0
    3c0e:	11 24       	eor	r1, r1
    3c10:	81 e0       	ldi	r24, 0x01	; 1
    3c12:	90 e0       	ldi	r25, 0x00	; 0
    3c14:	a0 e0       	ldi	r26, 0x00	; 0
    3c16:	b0 e0       	ldi	r27, 0x00	; 0
    3c18:	04 c0       	rjmp	.+8      	; 0x3c22 <gpioSet+0x42>
    3c1a:	88 0f       	add	r24, r24
    3c1c:	99 1f       	adc	r25, r25
    3c1e:	aa 1f       	adc	r26, r26
    3c20:	bb 1f       	adc	r27, r27
    3c22:	ca 95       	dec	r28
    3c24:	d2 f7       	brpl	.-12     	; 0x3c1a <gpioSet+0x3a>
    3c26:	dd 23       	and	r29, r29
    3c28:	29 f0       	breq	.+10     	; 0x3c34 <gpioSet+0x54>
    3c2a:	82 2b       	or	r24, r18
    3c2c:	8b b9       	out	0x0b, r24	; 11
    3c2e:	df 91       	pop	r29
    3c30:	cf 91       	pop	r28
    3c32:	08 95       	ret
    3c34:	80 95       	com	r24
    3c36:	90 95       	com	r25
    3c38:	a0 95       	com	r26
    3c3a:	b0 95       	com	r27
    3c3c:	82 23       	and	r24, r18
    3c3e:	f6 cf       	rjmp	.-20     	; 0x3c2c <gpioSet+0x4c>
    3c40:	8c 2f       	mov	r24, r28
    3c42:	86 95       	lsr	r24
    3c44:	86 95       	lsr	r24
    3c46:	86 95       	lsr	r24
    3c48:	25 b1       	in	r18, 0x05	; 5
    3c4a:	98 ef       	ldi	r25, 0xF8	; 248
    3c4c:	89 9f       	mul	r24, r25
    3c4e:	c0 0d       	add	r28, r0
    3c50:	11 24       	eor	r1, r1
    3c52:	81 e0       	ldi	r24, 0x01	; 1
    3c54:	90 e0       	ldi	r25, 0x00	; 0
    3c56:	a0 e0       	ldi	r26, 0x00	; 0
    3c58:	b0 e0       	ldi	r27, 0x00	; 0
    3c5a:	04 c0       	rjmp	.+8      	; 0x3c64 <gpioSet+0x84>
    3c5c:	88 0f       	add	r24, r24
    3c5e:	99 1f       	adc	r25, r25
    3c60:	aa 1f       	adc	r26, r26
    3c62:	bb 1f       	adc	r27, r27
    3c64:	ca 95       	dec	r28
    3c66:	d2 f7       	brpl	.-12     	; 0x3c5c <gpioSet+0x7c>
    3c68:	dd 23       	and	r29, r29
    3c6a:	19 f0       	breq	.+6      	; 0x3c72 <gpioSet+0x92>
    3c6c:	82 2b       	or	r24, r18
    3c6e:	85 b9       	out	0x05, r24	; 5
    3c70:	de cf       	rjmp	.-68     	; 0x3c2e <gpioSet+0x4e>
    3c72:	80 95       	com	r24
    3c74:	90 95       	com	r25
    3c76:	a0 95       	com	r26
    3c78:	b0 95       	com	r27
    3c7a:	82 23       	and	r24, r18
    3c7c:	f8 cf       	rjmp	.-16     	; 0x3c6e <gpioSet+0x8e>
    3c7e:	8c 2f       	mov	r24, r28
    3c80:	86 95       	lsr	r24
    3c82:	86 95       	lsr	r24
    3c84:	86 95       	lsr	r24
    3c86:	28 b1       	in	r18, 0x08	; 8
    3c88:	98 ef       	ldi	r25, 0xF8	; 248
    3c8a:	89 9f       	mul	r24, r25
    3c8c:	c0 0d       	add	r28, r0
    3c8e:	11 24       	eor	r1, r1
    3c90:	81 e0       	ldi	r24, 0x01	; 1
    3c92:	90 e0       	ldi	r25, 0x00	; 0
    3c94:	a0 e0       	ldi	r26, 0x00	; 0
    3c96:	b0 e0       	ldi	r27, 0x00	; 0
    3c98:	04 c0       	rjmp	.+8      	; 0x3ca2 <gpioSet+0xc2>
    3c9a:	88 0f       	add	r24, r24
    3c9c:	99 1f       	adc	r25, r25
    3c9e:	aa 1f       	adc	r26, r26
    3ca0:	bb 1f       	adc	r27, r27
    3ca2:	ca 95       	dec	r28
    3ca4:	d2 f7       	brpl	.-12     	; 0x3c9a <gpioSet+0xba>
    3ca6:	dd 23       	and	r29, r29
    3ca8:	19 f0       	breq	.+6      	; 0x3cb0 <gpioSet+0xd0>
    3caa:	82 2b       	or	r24, r18
    3cac:	88 b9       	out	0x08, r24	; 8
    3cae:	bf cf       	rjmp	.-130    	; 0x3c2e <gpioSet+0x4e>
    3cb0:	80 95       	com	r24
    3cb2:	90 95       	com	r25
    3cb4:	a0 95       	com	r26
    3cb6:	b0 95       	com	r27
    3cb8:	82 23       	and	r24, r18
    3cba:	f8 cf       	rjmp	.-16     	; 0x3cac <gpioSet+0xcc>

00003cbc <gpioGet>:
    3cbc:	cf 93       	push	r28
    3cbe:	c8 2f       	mov	r28, r24
    3cc0:	8f 3f       	cpi	r24, 0xFF	; 255
    3cc2:	21 f1       	breq	.+72     	; 0x3d0c <gpioGet+0x50>
    3cc4:	0e 94 d9 1d 	call	0x3bb2	; 0x3bb2 <gpio_to_info>
    3cc8:	81 30       	cpi	r24, 0x01	; 1
    3cca:	e1 f0       	breq	.+56     	; 0x3d04 <gpioGet+0x48>
    3ccc:	82 30       	cpi	r24, 0x02	; 2
    3cce:	e1 f0       	breq	.+56     	; 0x3d08 <gpioGet+0x4c>
    3cd0:	81 11       	cpse	r24, r1
    3cd2:	1c c0       	rjmp	.+56     	; 0x3d0c <gpioGet+0x50>
    3cd4:	99 b1       	in	r25, 0x09	; 9
    3cd6:	8c 2f       	mov	r24, r28
    3cd8:	86 95       	lsr	r24
    3cda:	86 95       	lsr	r24
    3cdc:	86 95       	lsr	r24
    3cde:	28 ef       	ldi	r18, 0xF8	; 248
    3ce0:	82 9f       	mul	r24, r18
    3ce2:	c0 0d       	add	r28, r0
    3ce4:	11 24       	eor	r1, r1
    3ce6:	41 e0       	ldi	r20, 0x01	; 1
    3ce8:	50 e0       	ldi	r21, 0x00	; 0
    3cea:	60 e0       	ldi	r22, 0x00	; 0
    3cec:	70 e0       	ldi	r23, 0x00	; 0
    3cee:	04 c0       	rjmp	.+8      	; 0x3cf8 <gpioGet+0x3c>
    3cf0:	44 0f       	add	r20, r20
    3cf2:	55 1f       	adc	r21, r21
    3cf4:	66 1f       	adc	r22, r22
    3cf6:	77 1f       	adc	r23, r23
    3cf8:	ca 95       	dec	r28
    3cfa:	d2 f7       	brpl	.-12     	; 0x3cf0 <gpioGet+0x34>
    3cfc:	94 23       	and	r25, r20
    3cfe:	89 2f       	mov	r24, r25
    3d00:	cf 91       	pop	r28
    3d02:	08 95       	ret
    3d04:	93 b1       	in	r25, 0x03	; 3
    3d06:	e7 cf       	rjmp	.-50     	; 0x3cd6 <gpioGet+0x1a>
    3d08:	96 b1       	in	r25, 0x06	; 6
    3d0a:	e5 cf       	rjmp	.-54     	; 0x3cd6 <gpioGet+0x1a>
    3d0c:	90 e0       	ldi	r25, 0x00	; 0
    3d0e:	f7 cf       	rjmp	.-18     	; 0x3cfe <gpioGet+0x42>

00003d10 <pwmSet>:
    3d10:	cf 93       	push	r28
    3d12:	df 93       	push	r29
    3d14:	d8 2f       	mov	r29, r24
    3d16:	c6 2f       	mov	r28, r22
    3d18:	61 11       	cpse	r22, r1
    3d1a:	06 c0       	rjmp	.+12     	; 0x3d28 <pwmSet+0x18>
    3d1c:	60 e0       	ldi	r22, 0x00	; 0
    3d1e:	8d 2f       	mov	r24, r29
    3d20:	df 91       	pop	r29
    3d22:	cf 91       	pop	r28
    3d24:	0c 94 f0 1d 	jmp	0x3be0	; 0x3be0 <gpioSet>
    3d28:	6f 3f       	cpi	r22, 0xFF	; 255
    3d2a:	11 f4       	brne	.+4      	; 0x3d30 <pwmSet+0x20>
    3d2c:	61 e0       	ldi	r22, 0x01	; 1
    3d2e:	f7 cf       	rjmp	.-18     	; 0x3d1e <pwmSet+0xe>
    3d30:	0e 94 ce 1d 	call	0x3b9c	; 0x3b9c <gpio_to_timer>
    3d34:	83 30       	cpi	r24, 0x03	; 3
    3d36:	69 f1       	breq	.+90     	; 0x3d92 <pwmSet+0x82>
    3d38:	48 f4       	brcc	.+18     	; 0x3d4c <pwmSet+0x3c>
    3d3a:	81 30       	cpi	r24, 0x01	; 1
    3d3c:	d1 f0       	breq	.+52     	; 0x3d72 <pwmSet+0x62>
    3d3e:	82 30       	cpi	r24, 0x02	; 2
    3d40:	e9 f0       	breq	.+58     	; 0x3d7c <pwmSet+0x6c>
    3d42:	88 23       	and	r24, r24
    3d44:	79 f0       	breq	.+30     	; 0x3d64 <pwmSet+0x54>
    3d46:	c7 ff       	sbrs	r28, 7
    3d48:	e9 cf       	rjmp	.-46     	; 0x3d1c <pwmSet+0xc>
    3d4a:	f0 cf       	rjmp	.-32     	; 0x3d2c <pwmSet+0x1c>
    3d4c:	86 30       	cpi	r24, 0x06	; 6
    3d4e:	61 f1       	breq	.+88     	; 0x3da8 <pwmSet+0x98>
    3d50:	87 30       	cpi	r24, 0x07	; 7
    3d52:	c9 f7       	brne	.-14     	; 0x3d46 <pwmSet+0x36>
    3d54:	80 91 b0 00 	lds	r24, 0x00B0	; 0x8000b0 <__TEXT_REGION_LENGTH__+0x7e00b0>
    3d58:	80 62       	ori	r24, 0x20	; 32
    3d5a:	80 93 b0 00 	sts	0x00B0, r24	; 0x8000b0 <__TEXT_REGION_LENGTH__+0x7e00b0>
    3d5e:	c0 93 b4 00 	sts	0x00B4, r28	; 0x8000b4 <__TEXT_REGION_LENGTH__+0x7e00b4>
    3d62:	04 c0       	rjmp	.+8      	; 0x3d6c <pwmSet+0x5c>
    3d64:	84 b5       	in	r24, 0x24	; 36
    3d66:	80 68       	ori	r24, 0x80	; 128
    3d68:	84 bd       	out	0x24, r24	; 36
    3d6a:	c7 bd       	out	0x27, r28	; 39
    3d6c:	df 91       	pop	r29
    3d6e:	cf 91       	pop	r28
    3d70:	08 95       	ret
    3d72:	84 b5       	in	r24, 0x24	; 36
    3d74:	80 62       	ori	r24, 0x20	; 32
    3d76:	84 bd       	out	0x24, r24	; 36
    3d78:	c8 bd       	out	0x28, r28	; 40
    3d7a:	f8 cf       	rjmp	.-16     	; 0x3d6c <pwmSet+0x5c>
    3d7c:	80 91 80 00 	lds	r24, 0x0080	; 0x800080 <__TEXT_REGION_LENGTH__+0x7e0080>
    3d80:	80 68       	ori	r24, 0x80	; 128
    3d82:	80 93 80 00 	sts	0x0080, r24	; 0x800080 <__TEXT_REGION_LENGTH__+0x7e0080>
    3d86:	d0 e0       	ldi	r29, 0x00	; 0
    3d88:	d0 93 89 00 	sts	0x0089, r29	; 0x800089 <__TEXT_REGION_LENGTH__+0x7e0089>
    3d8c:	c0 93 88 00 	sts	0x0088, r28	; 0x800088 <__TEXT_REGION_LENGTH__+0x7e0088>
    3d90:	ed cf       	rjmp	.-38     	; 0x3d6c <pwmSet+0x5c>
    3d92:	80 91 80 00 	lds	r24, 0x0080	; 0x800080 <__TEXT_REGION_LENGTH__+0x7e0080>
    3d96:	80 62       	ori	r24, 0x20	; 32
    3d98:	80 93 80 00 	sts	0x0080, r24	; 0x800080 <__TEXT_REGION_LENGTH__+0x7e0080>
    3d9c:	d0 e0       	ldi	r29, 0x00	; 0
    3d9e:	d0 93 8b 00 	sts	0x008B, r29	; 0x80008b <__TEXT_REGION_LENGTH__+0x7e008b>
    3da2:	c0 93 8a 00 	sts	0x008A, r28	; 0x80008a <__TEXT_REGION_LENGTH__+0x7e008a>
    3da6:	e2 cf       	rjmp	.-60     	; 0x3d6c <pwmSet+0x5c>
    3da8:	80 91 b0 00 	lds	r24, 0x00B0	; 0x8000b0 <__TEXT_REGION_LENGTH__+0x7e00b0>
    3dac:	80 68       	ori	r24, 0x80	; 128
    3dae:	80 93 b0 00 	sts	0x00B0, r24	; 0x8000b0 <__TEXT_REGION_LENGTH__+0x7e00b0>
    3db2:	c0 93 b3 00 	sts	0x00B3, r28	; 0x8000b3 <__TEXT_REGION_LENGTH__+0x7e00b3>
    3db6:	da cf       	rjmp	.-76     	; 0x3d6c <pwmSet+0x5c>

00003db8 <analogReference>:
    3db8:	80 93 02 03 	sts	0x0302, r24	; 0x800302 <analog_reference>
    3dbc:	08 95       	ret

00003dbe <adcGet>:
    3dbe:	8e 30       	cpi	r24, 0x0E	; 14
    3dc0:	08 f0       	brcs	.+2      	; 0x3dc4 <adcGet+0x6>
    3dc2:	8e 50       	subi	r24, 0x0E	; 14
    3dc4:	20 91 02 03 	lds	r18, 0x0302	; 0x800302 <analog_reference>
    3dc8:	90 e4       	ldi	r25, 0x40	; 64
    3dca:	29 9f       	mul	r18, r25
    3dcc:	90 01       	movw	r18, r0
    3dce:	11 24       	eor	r1, r1
    3dd0:	87 70       	andi	r24, 0x07	; 7
    3dd2:	82 2b       	or	r24, r18
    3dd4:	80 93 7c 00 	sts	0x007C, r24	; 0x80007c <__TEXT_REGION_LENGTH__+0x7e007c>
    3dd8:	80 91 7a 00 	lds	r24, 0x007A	; 0x80007a <__TEXT_REGION_LENGTH__+0x7e007a>
    3ddc:	80 64       	ori	r24, 0x40	; 64
    3dde:	80 93 7a 00 	sts	0x007A, r24	; 0x80007a <__TEXT_REGION_LENGTH__+0x7e007a>
    3de2:	80 91 7a 00 	lds	r24, 0x007A	; 0x80007a <__TEXT_REGION_LENGTH__+0x7e007a>
    3de6:	86 fd       	sbrc	r24, 6
    3de8:	fc cf       	rjmp	.-8      	; 0x3de2 <adcGet+0x24>
    3dea:	80 91 78 00 	lds	r24, 0x0078	; 0x800078 <__TEXT_REGION_LENGTH__+0x7e0078>
    3dee:	90 91 79 00 	lds	r25, 0x0079	; 0x800079 <__TEXT_REGION_LENGTH__+0x7e0079>
    3df2:	08 95       	ret

00003df4 <gpioInit>:
    3df4:	cf 93       	push	r28
    3df6:	c8 2f       	mov	r28, r24
    3df8:	8f 3f       	cpi	r24, 0xFF	; 255
    3dfa:	31 f0       	breq	.+12     	; 0x3e08 <gpioInit+0x14>
    3dfc:	62 30       	cpi	r22, 0x02	; 2
    3dfe:	30 f0       	brcs	.+12     	; 0x3e0c <gpioInit+0x18>
    3e00:	62 50       	subi	r22, 0x02	; 2
    3e02:	62 30       	cpi	r22, 0x02	; 2
    3e04:	08 f4       	brcc	.+2      	; 0x3e08 <gpioInit+0x14>
    3e06:	5b c0       	rjmp	.+182    	; 0x3ebe <gpioInit+0xca>
    3e08:	cf 91       	pop	r28
    3e0a:	08 95       	ret
    3e0c:	0e 94 d9 1d 	call	0x3bb2	; 0x3bb2 <gpio_to_info>
    3e10:	81 11       	cpse	r24, r1
    3e12:	1b c0       	rjmp	.+54     	; 0x3e4a <gpioInit+0x56>
    3e14:	2a b1       	in	r18, 0x0a	; 10
    3e16:	8c 2f       	mov	r24, r28
    3e18:	86 95       	lsr	r24
    3e1a:	86 95       	lsr	r24
    3e1c:	86 95       	lsr	r24
    3e1e:	98 ef       	ldi	r25, 0xF8	; 248
    3e20:	89 9f       	mul	r24, r25
    3e22:	c0 0d       	add	r28, r0
    3e24:	11 24       	eor	r1, r1
    3e26:	81 e0       	ldi	r24, 0x01	; 1
    3e28:	90 e0       	ldi	r25, 0x00	; 0
    3e2a:	a0 e0       	ldi	r26, 0x00	; 0
    3e2c:	b0 e0       	ldi	r27, 0x00	; 0
    3e2e:	04 c0       	rjmp	.+8      	; 0x3e38 <gpioInit+0x44>
    3e30:	88 0f       	add	r24, r24
    3e32:	99 1f       	adc	r25, r25
    3e34:	aa 1f       	adc	r26, r26
    3e36:	bb 1f       	adc	r27, r27
    3e38:	ca 95       	dec	r28
    3e3a:	d2 f7       	brpl	.-12     	; 0x3e30 <gpioInit+0x3c>
    3e3c:	80 95       	com	r24
    3e3e:	90 95       	com	r25
    3e40:	a0 95       	com	r26
    3e42:	b0 95       	com	r27
    3e44:	82 23       	and	r24, r18
    3e46:	8a b9       	out	0x0a, r24	; 10
    3e48:	df cf       	rjmp	.-66     	; 0x3e08 <gpioInit+0x14>
    3e4a:	81 30       	cpi	r24, 0x01	; 1
    3e4c:	e9 f0       	breq	.+58     	; 0x3e88 <gpioInit+0x94>
    3e4e:	82 30       	cpi	r24, 0x02	; 2
    3e50:	d9 f6       	brne	.-74     	; 0x3e08 <gpioInit+0x14>
    3e52:	27 b1       	in	r18, 0x07	; 7
    3e54:	8c 2f       	mov	r24, r28
    3e56:	86 95       	lsr	r24
    3e58:	86 95       	lsr	r24
    3e5a:	86 95       	lsr	r24
    3e5c:	98 ef       	ldi	r25, 0xF8	; 248
    3e5e:	89 9f       	mul	r24, r25
    3e60:	c0 0d       	add	r28, r0
    3e62:	11 24       	eor	r1, r1
    3e64:	81 e0       	ldi	r24, 0x01	; 1
    3e66:	90 e0       	ldi	r25, 0x00	; 0
    3e68:	a0 e0       	ldi	r26, 0x00	; 0
    3e6a:	b0 e0       	ldi	r27, 0x00	; 0
    3e6c:	04 c0       	rjmp	.+8      	; 0x3e76 <gpioInit+0x82>
    3e6e:	88 0f       	add	r24, r24
    3e70:	99 1f       	adc	r25, r25
    3e72:	aa 1f       	adc	r26, r26
    3e74:	bb 1f       	adc	r27, r27
    3e76:	ca 95       	dec	r28
    3e78:	d2 f7       	brpl	.-12     	; 0x3e6e <gpioInit+0x7a>
    3e7a:	80 95       	com	r24
    3e7c:	90 95       	com	r25
    3e7e:	a0 95       	com	r26
    3e80:	b0 95       	com	r27
    3e82:	82 23       	and	r24, r18
    3e84:	87 b9       	out	0x07, r24	; 7
    3e86:	c0 cf       	rjmp	.-128    	; 0x3e08 <gpioInit+0x14>
    3e88:	24 b1       	in	r18, 0x04	; 4
    3e8a:	8c 2f       	mov	r24, r28
    3e8c:	86 95       	lsr	r24
    3e8e:	86 95       	lsr	r24
    3e90:	86 95       	lsr	r24
    3e92:	98 ef       	ldi	r25, 0xF8	; 248
    3e94:	89 9f       	mul	r24, r25
    3e96:	c0 0d       	add	r28, r0
    3e98:	11 24       	eor	r1, r1
    3e9a:	81 e0       	ldi	r24, 0x01	; 1
    3e9c:	90 e0       	ldi	r25, 0x00	; 0
    3e9e:	a0 e0       	ldi	r26, 0x00	; 0
    3ea0:	b0 e0       	ldi	r27, 0x00	; 0
    3ea2:	04 c0       	rjmp	.+8      	; 0x3eac <gpioInit+0xb8>
    3ea4:	88 0f       	add	r24, r24
    3ea6:	99 1f       	adc	r25, r25
    3ea8:	aa 1f       	adc	r26, r26
    3eaa:	bb 1f       	adc	r27, r27
    3eac:	ca 95       	dec	r28
    3eae:	d2 f7       	brpl	.-12     	; 0x3ea4 <gpioInit+0xb0>
    3eb0:	80 95       	com	r24
    3eb2:	90 95       	com	r25
    3eb4:	a0 95       	com	r26
    3eb6:	b0 95       	com	r27
    3eb8:	82 23       	and	r24, r18
    3eba:	84 b9       	out	0x04, r24	; 4
    3ebc:	a5 cf       	rjmp	.-182    	; 0x3e08 <gpioInit+0x14>
    3ebe:	0e 94 d9 1d 	call	0x3bb2	; 0x3bb2 <gpio_to_info>
    3ec2:	81 11       	cpse	r24, r1
    3ec4:	16 c0       	rjmp	.+44     	; 0x3ef2 <gpioInit+0xfe>
    3ec6:	2a b1       	in	r18, 0x0a	; 10
    3ec8:	8c 2f       	mov	r24, r28
    3eca:	86 95       	lsr	r24
    3ecc:	86 95       	lsr	r24
    3ece:	86 95       	lsr	r24
    3ed0:	98 ef       	ldi	r25, 0xF8	; 248
    3ed2:	89 9f       	mul	r24, r25
    3ed4:	c0 0d       	add	r28, r0
    3ed6:	11 24       	eor	r1, r1
    3ed8:	81 e0       	ldi	r24, 0x01	; 1
    3eda:	90 e0       	ldi	r25, 0x00	; 0
    3edc:	a0 e0       	ldi	r26, 0x00	; 0
    3ede:	b0 e0       	ldi	r27, 0x00	; 0
    3ee0:	04 c0       	rjmp	.+8      	; 0x3eea <gpioInit+0xf6>
    3ee2:	88 0f       	add	r24, r24
    3ee4:	99 1f       	adc	r25, r25
    3ee6:	aa 1f       	adc	r26, r26
    3ee8:	bb 1f       	adc	r27, r27
    3eea:	ca 95       	dec	r28
    3eec:	d2 f7       	brpl	.-12     	; 0x3ee2 <gpioInit+0xee>
    3eee:	82 2b       	or	r24, r18
    3ef0:	aa cf       	rjmp	.-172    	; 0x3e46 <gpioInit+0x52>
    3ef2:	81 30       	cpi	r24, 0x01	; 1
    3ef4:	c9 f0       	breq	.+50     	; 0x3f28 <gpioInit+0x134>
    3ef6:	82 30       	cpi	r24, 0x02	; 2
    3ef8:	09 f0       	breq	.+2      	; 0x3efc <gpioInit+0x108>
    3efa:	86 cf       	rjmp	.-244    	; 0x3e08 <gpioInit+0x14>
    3efc:	27 b1       	in	r18, 0x07	; 7
    3efe:	8c 2f       	mov	r24, r28
    3f00:	86 95       	lsr	r24
    3f02:	86 95       	lsr	r24
    3f04:	86 95       	lsr	r24
    3f06:	98 ef       	ldi	r25, 0xF8	; 248
    3f08:	89 9f       	mul	r24, r25
    3f0a:	c0 0d       	add	r28, r0
    3f0c:	11 24       	eor	r1, r1
    3f0e:	81 e0       	ldi	r24, 0x01	; 1
    3f10:	90 e0       	ldi	r25, 0x00	; 0
    3f12:	a0 e0       	ldi	r26, 0x00	; 0
    3f14:	b0 e0       	ldi	r27, 0x00	; 0
    3f16:	04 c0       	rjmp	.+8      	; 0x3f20 <gpioInit+0x12c>
    3f18:	88 0f       	add	r24, r24
    3f1a:	99 1f       	adc	r25, r25
    3f1c:	aa 1f       	adc	r26, r26
    3f1e:	bb 1f       	adc	r27, r27
    3f20:	ca 95       	dec	r28
    3f22:	d2 f7       	brpl	.-12     	; 0x3f18 <gpioInit+0x124>
    3f24:	82 2b       	or	r24, r18
    3f26:	ae cf       	rjmp	.-164    	; 0x3e84 <gpioInit+0x90>
    3f28:	24 b1       	in	r18, 0x04	; 4
    3f2a:	8c 2f       	mov	r24, r28
    3f2c:	86 95       	lsr	r24
    3f2e:	86 95       	lsr	r24
    3f30:	86 95       	lsr	r24
    3f32:	98 ef       	ldi	r25, 0xF8	; 248
    3f34:	89 9f       	mul	r24, r25
    3f36:	c0 0d       	add	r28, r0
    3f38:	11 24       	eor	r1, r1
    3f3a:	81 e0       	ldi	r24, 0x01	; 1
    3f3c:	90 e0       	ldi	r25, 0x00	; 0
    3f3e:	a0 e0       	ldi	r26, 0x00	; 0
    3f40:	b0 e0       	ldi	r27, 0x00	; 0
    3f42:	04 c0       	rjmp	.+8      	; 0x3f4c <gpioInit+0x158>
    3f44:	88 0f       	add	r24, r24
    3f46:	99 1f       	adc	r25, r25
    3f48:	aa 1f       	adc	r26, r26
    3f4a:	bb 1f       	adc	r27, r27
    3f4c:	ca 95       	dec	r28
    3f4e:	d2 f7       	brpl	.-12     	; 0x3f44 <gpioInit+0x150>
    3f50:	82 2b       	or	r24, r18
    3f52:	b3 cf       	rjmp	.-154    	; 0x3eba <gpioInit+0xc6>

00003f54 <__vector_16>:
    3f54:	1f 92       	push	r1
    3f56:	1f b6       	in	r1, 0x3f	; 63
    3f58:	1f 92       	push	r1
    3f5a:	11 24       	eor	r1, r1
    3f5c:	2f 93       	push	r18
    3f5e:	3f 93       	push	r19
    3f60:	8f 93       	push	r24
    3f62:	9f 93       	push	r25
    3f64:	af 93       	push	r26
    3f66:	bf 93       	push	r27
    3f68:	80 91 ab 03 	lds	r24, 0x03AB	; 0x8003ab <timer0_millis>
    3f6c:	90 91 ac 03 	lds	r25, 0x03AC	; 0x8003ac <timer0_millis+0x1>
    3f70:	a0 91 ad 03 	lds	r26, 0x03AD	; 0x8003ad <timer0_millis+0x2>
    3f74:	b0 91 ae 03 	lds	r27, 0x03AE	; 0x8003ae <timer0_millis+0x3>
    3f78:	30 91 aa 03 	lds	r19, 0x03AA	; 0x8003aa <timer0_fract>
    3f7c:	23 e0       	ldi	r18, 0x03	; 3
    3f7e:	23 0f       	add	r18, r19
    3f80:	2d 37       	cpi	r18, 0x7D	; 125
    3f82:	50 f5       	brcc	.+84     	; 0x3fd8 <__vector_16+0x84>
    3f84:	01 96       	adiw	r24, 0x01	; 1
    3f86:	a1 1d       	adc	r26, r1
    3f88:	b1 1d       	adc	r27, r1
    3f8a:	20 93 aa 03 	sts	0x03AA, r18	; 0x8003aa <timer0_fract>
    3f8e:	80 93 ab 03 	sts	0x03AB, r24	; 0x8003ab <timer0_millis>
    3f92:	90 93 ac 03 	sts	0x03AC, r25	; 0x8003ac <timer0_millis+0x1>
    3f96:	a0 93 ad 03 	sts	0x03AD, r26	; 0x8003ad <timer0_millis+0x2>
    3f9a:	b0 93 ae 03 	sts	0x03AE, r27	; 0x8003ae <timer0_millis+0x3>
    3f9e:	80 91 af 03 	lds	r24, 0x03AF	; 0x8003af <timer0_overflow_count>
    3fa2:	90 91 b0 03 	lds	r25, 0x03B0	; 0x8003b0 <timer0_overflow_count+0x1>
    3fa6:	a0 91 b1 03 	lds	r26, 0x03B1	; 0x8003b1 <timer0_overflow_count+0x2>
    3faa:	b0 91 b2 03 	lds	r27, 0x03B2	; 0x8003b2 <timer0_overflow_count+0x3>
    3fae:	01 96       	adiw	r24, 0x01	; 1
    3fb0:	a1 1d       	adc	r26, r1
    3fb2:	b1 1d       	adc	r27, r1
    3fb4:	80 93 af 03 	sts	0x03AF, r24	; 0x8003af <timer0_overflow_count>
    3fb8:	90 93 b0 03 	sts	0x03B0, r25	; 0x8003b0 <timer0_overflow_count+0x1>
    3fbc:	a0 93 b1 03 	sts	0x03B1, r26	; 0x8003b1 <timer0_overflow_count+0x2>
    3fc0:	b0 93 b2 03 	sts	0x03B2, r27	; 0x8003b2 <timer0_overflow_count+0x3>
    3fc4:	bf 91       	pop	r27
    3fc6:	af 91       	pop	r26
    3fc8:	9f 91       	pop	r25
    3fca:	8f 91       	pop	r24
    3fcc:	3f 91       	pop	r19
    3fce:	2f 91       	pop	r18
    3fd0:	1f 90       	pop	r1
    3fd2:	1f be       	out	0x3f, r1	; 63
    3fd4:	1f 90       	pop	r1
    3fd6:	18 95       	reti
    3fd8:	26 e8       	ldi	r18, 0x86	; 134
    3fda:	23 0f       	add	r18, r19
    3fdc:	02 96       	adiw	r24, 0x02	; 2
    3fde:	a1 1d       	adc	r26, r1
    3fe0:	b1 1d       	adc	r27, r1
    3fe2:	d3 cf       	rjmp	.-90     	; 0x3f8a <__vector_16+0x36>

00003fe4 <hal_millis>:
    3fe4:	cf 93       	push	r28
    3fe6:	df 93       	push	r29
    3fe8:	00 d0       	rcall	.+0      	; 0x3fea <hal_millis+0x6>
    3fea:	00 d0       	rcall	.+0      	; 0x3fec <hal_millis+0x8>
    3fec:	cd b7       	in	r28, 0x3d	; 61
    3fee:	de b7       	in	r29, 0x3e	; 62
    3ff0:	8f b7       	in	r24, 0x3f	; 63
    3ff2:	f8 94       	cli
    3ff4:	20 91 ab 03 	lds	r18, 0x03AB	; 0x8003ab <timer0_millis>
    3ff8:	30 91 ac 03 	lds	r19, 0x03AC	; 0x8003ac <timer0_millis+0x1>
    3ffc:	40 91 ad 03 	lds	r20, 0x03AD	; 0x8003ad <timer0_millis+0x2>
    4000:	50 91 ae 03 	lds	r21, 0x03AE	; 0x8003ae <timer0_millis+0x3>
    4004:	29 83       	std	Y+1, r18	; 0x01
    4006:	3a 83       	std	Y+2, r19	; 0x02
    4008:	4b 83       	std	Y+3, r20	; 0x03
    400a:	5c 83       	std	Y+4, r21	; 0x04
    400c:	8f bf       	out	0x3f, r24	; 63
    400e:	69 81       	ldd	r22, Y+1	; 0x01
    4010:	7a 81       	ldd	r23, Y+2	; 0x02
    4012:	8b 81       	ldd	r24, Y+3	; 0x03
    4014:	9c 81       	ldd	r25, Y+4	; 0x04
    4016:	0f 90       	pop	r0
    4018:	0f 90       	pop	r0
    401a:	0f 90       	pop	r0
    401c:	0f 90       	pop	r0
    401e:	df 91       	pop	r29
    4020:	cf 91       	pop	r28
    4022:	08 95       	ret

00004024 <micros>:
    4024:	cf 93       	push	r28
    4026:	df 93       	push	r29
    4028:	00 d0       	rcall	.+0      	; 0x402a <micros+0x6>
    402a:	00 d0       	rcall	.+0      	; 0x402c <micros+0x8>
    402c:	cd b7       	in	r28, 0x3d	; 61
    402e:	de b7       	in	r29, 0x3e	; 62
    4030:	3f b7       	in	r19, 0x3f	; 63
    4032:	f8 94       	cli
    4034:	80 91 af 03 	lds	r24, 0x03AF	; 0x8003af <timer0_overflow_count>
    4038:	90 91 b0 03 	lds	r25, 0x03B0	; 0x8003b0 <timer0_overflow_count+0x1>
    403c:	a0 91 b1 03 	lds	r26, 0x03B1	; 0x8003b1 <timer0_overflow_count+0x2>
    4040:	b0 91 b2 03 	lds	r27, 0x03B2	; 0x8003b2 <timer0_overflow_count+0x3>
    4044:	26 b5       	in	r18, 0x26	; 38
    4046:	a8 9b       	sbis	0x15, 0	; 21
    4048:	05 c0       	rjmp	.+10     	; 0x4054 <micros+0x30>
    404a:	2f 3f       	cpi	r18, 0xFF	; 255
    404c:	19 f0       	breq	.+6      	; 0x4054 <micros+0x30>
    404e:	01 96       	adiw	r24, 0x01	; 1
    4050:	a1 1d       	adc	r26, r1
    4052:	b1 1d       	adc	r27, r1
    4054:	3f bf       	out	0x3f, r19	; 63
    4056:	ba 2f       	mov	r27, r26
    4058:	a9 2f       	mov	r26, r25
    405a:	98 2f       	mov	r25, r24
    405c:	88 27       	eor	r24, r24
    405e:	82 0f       	add	r24, r18
    4060:	91 1d       	adc	r25, r1
    4062:	a1 1d       	adc	r26, r1
    4064:	b1 1d       	adc	r27, r1
    4066:	9c 01       	movw	r18, r24
    4068:	ad 01       	movw	r20, r26
    406a:	62 e0       	ldi	r22, 0x02	; 2
    406c:	22 0f       	add	r18, r18
    406e:	33 1f       	adc	r19, r19
    4070:	44 1f       	adc	r20, r20
    4072:	55 1f       	adc	r21, r21
    4074:	6a 95       	dec	r22
    4076:	d1 f7       	brne	.-12     	; 0x406c <micros+0x48>
    4078:	ca 01       	movw	r24, r20
    407a:	b9 01       	movw	r22, r18
    407c:	0f 90       	pop	r0
    407e:	0f 90       	pop	r0
    4080:	0f 90       	pop	r0
    4082:	0f 90       	pop	r0
    4084:	df 91       	pop	r29
    4086:	cf 91       	pop	r28
    4088:	08 95       	ret

0000408a <hal_delay>:
    408a:	8f 92       	push	r8
    408c:	9f 92       	push	r9
    408e:	af 92       	push	r10
    4090:	bf 92       	push	r11
    4092:	cf 92       	push	r12
    4094:	df 92       	push	r13
    4096:	ef 92       	push	r14
    4098:	ff 92       	push	r15
    409a:	cf 93       	push	r28
    409c:	df 93       	push	r29
    409e:	00 d0       	rcall	.+0      	; 0x40a0 <hal_delay+0x16>
    40a0:	00 d0       	rcall	.+0      	; 0x40a2 <hal_delay+0x18>
    40a2:	cd b7       	in	r28, 0x3d	; 61
    40a4:	de b7       	in	r29, 0x3e	; 62
    40a6:	6b 01       	movw	r12, r22
    40a8:	7c 01       	movw	r14, r24
    40aa:	0e 94 12 20 	call	0x4024	; 0x4024 <micros>
    40ae:	4b 01       	movw	r8, r22
    40b0:	5c 01       	movw	r10, r24
    40b2:	c1 14       	cp	r12, r1
    40b4:	d1 04       	cpc	r13, r1
    40b6:	e1 04       	cpc	r14, r1
    40b8:	f1 04       	cpc	r15, r1
    40ba:	c9 f0       	breq	.+50     	; 0x40ee <hal_delay+0x64>
    40bc:	0e 94 12 20 	call	0x4024	; 0x4024 <micros>
    40c0:	dc 01       	movw	r26, r24
    40c2:	cb 01       	movw	r24, r22
    40c4:	88 19       	sub	r24, r8
    40c6:	99 09       	sbc	r25, r9
    40c8:	aa 09       	sbc	r26, r10
    40ca:	bb 09       	sbc	r27, r11
    40cc:	88 3e       	cpi	r24, 0xE8	; 232
    40ce:	93 40       	sbci	r25, 0x03	; 3
    40d0:	a1 05       	cpc	r26, r1
    40d2:	b1 05       	cpc	r27, r1
    40d4:	70 f3       	brcs	.-36     	; 0x40b2 <hal_delay+0x28>
    40d6:	21 e0       	ldi	r18, 0x01	; 1
    40d8:	c2 1a       	sub	r12, r18
    40da:	d1 08       	sbc	r13, r1
    40dc:	e1 08       	sbc	r14, r1
    40de:	f1 08       	sbc	r15, r1
    40e0:	88 ee       	ldi	r24, 0xE8	; 232
    40e2:	88 0e       	add	r8, r24
    40e4:	83 e0       	ldi	r24, 0x03	; 3
    40e6:	98 1e       	adc	r9, r24
    40e8:	a1 1c       	adc	r10, r1
    40ea:	b1 1c       	adc	r11, r1
    40ec:	e2 cf       	rjmp	.-60     	; 0x40b2 <hal_delay+0x28>
    40ee:	0f 90       	pop	r0
    40f0:	0f 90       	pop	r0
    40f2:	0f 90       	pop	r0
    40f4:	0f 90       	pop	r0
    40f6:	df 91       	pop	r29
    40f8:	cf 91       	pop	r28
    40fa:	ff 90       	pop	r15
    40fc:	ef 90       	pop	r14
    40fe:	df 90       	pop	r13
    4100:	cf 90       	pop	r12
    4102:	bf 90       	pop	r11
    4104:	af 90       	pop	r10
    4106:	9f 90       	pop	r9
    4108:	8f 90       	pop	r8
    410a:	08 95       	ret

0000410c <TWIGetStatus>:
    410c:	80 91 b9 00 	lds	r24, 0x00B9	; 0x8000b9 <__TEXT_REGION_LENGTH__+0x7e00b9>
    4110:	88 7f       	andi	r24, 0xF8	; 248
    4112:	08 95       	ret

00004114 <i2c_Write>:
    4114:	80 93 bb 00 	sts	0x00BB, r24	; 0x8000bb <__TEXT_REGION_LENGTH__+0x7e00bb>
    4118:	84 e8       	ldi	r24, 0x84	; 132
    411a:	80 93 bc 00 	sts	0x00BC, r24	; 0x8000bc <__TEXT_REGION_LENGTH__+0x7e00bc>
    411e:	80 91 bc 00 	lds	r24, 0x00BC	; 0x8000bc <__TEXT_REGION_LENGTH__+0x7e00bc>
    4122:	87 ff       	sbrs	r24, 7
    4124:	fc cf       	rjmp	.-8      	; 0x411e <i2c_Write+0xa>
    4126:	08 95       	ret

00004128 <i2c_Read>:
    4128:	81 30       	cpi	r24, 0x01	; 1
    412a:	19 f4       	brne	.+6      	; 0x4132 <i2c_Read+0xa>
    412c:	84 ec       	ldi	r24, 0xC4	; 196
    412e:	80 93 bc 00 	sts	0x00BC, r24	; 0x8000bc <__TEXT_REGION_LENGTH__+0x7e00bc>
    4132:	84 e8       	ldi	r24, 0x84	; 132
    4134:	80 93 bc 00 	sts	0x00BC, r24	; 0x8000bc <__TEXT_REGION_LENGTH__+0x7e00bc>
    4138:	80 91 bc 00 	lds	r24, 0x00BC	; 0x8000bc <__TEXT_REGION_LENGTH__+0x7e00bc>
    413c:	87 ff       	sbrs	r24, 7
    413e:	fc cf       	rjmp	.-8      	; 0x4138 <i2c_Read+0x10>
    4140:	80 91 bb 00 	lds	r24, 0x00BB	; 0x8000bb <__TEXT_REGION_LENGTH__+0x7e00bb>
    4144:	08 95       	ret

00004146 <i2c_Start>:
    4146:	84 2f       	mov	r24, r20
    4148:	94 ea       	ldi	r25, 0xA4	; 164
    414a:	90 93 bc 00 	sts	0x00BC, r25	; 0x8000bc <__TEXT_REGION_LENGTH__+0x7e00bc>
    414e:	90 91 bc 00 	lds	r25, 0x00BC	; 0x8000bc <__TEXT_REGION_LENGTH__+0x7e00bc>
    4152:	97 ff       	sbrs	r25, 7
    4154:	fc cf       	rjmp	.-8      	; 0x414e <i2c_Start+0x8>
    4156:	0c 94 8a 20 	jmp	0x4114	; 0x4114 <i2c_Write>

0000415a <i2c_Stop>:
    415a:	84 e9       	ldi	r24, 0x94	; 148
    415c:	80 93 bc 00 	sts	0x00BC, r24	; 0x8000bc <__TEXT_REGION_LENGTH__+0x7e00bc>
    4160:	08 95       	ret

00004162 <init_hal>:
    4162:	78 94       	sei
    4164:	84 b5       	in	r24, 0x24	; 36
    4166:	82 60       	ori	r24, 0x02	; 2
    4168:	84 bd       	out	0x24, r24	; 36
    416a:	84 b5       	in	r24, 0x24	; 36
    416c:	81 60       	ori	r24, 0x01	; 1
    416e:	84 bd       	out	0x24, r24	; 36
    4170:	85 b5       	in	r24, 0x25	; 37
    4172:	82 60       	ori	r24, 0x02	; 2
    4174:	85 bd       	out	0x25, r24	; 37
    4176:	85 b5       	in	r24, 0x25	; 37
    4178:	81 60       	ori	r24, 0x01	; 1
    417a:	85 bd       	out	0x25, r24	; 37
    417c:	ee e6       	ldi	r30, 0x6E	; 110
    417e:	f0 e0       	ldi	r31, 0x00	; 0
    4180:	80 81       	ld	r24, Z
    4182:	81 60       	ori	r24, 0x01	; 1
    4184:	80 83       	st	Z, r24
    4186:	e1 e8       	ldi	r30, 0x81	; 129
    4188:	f0 e0       	ldi	r31, 0x00	; 0
    418a:	10 82       	st	Z, r1
    418c:	80 81       	ld	r24, Z
    418e:	82 60       	ori	r24, 0x02	; 2
    4190:	80 83       	st	Z, r24
    4192:	80 81       	ld	r24, Z
    4194:	81 60       	ori	r24, 0x01	; 1
    4196:	80 83       	st	Z, r24
    4198:	e0 e8       	ldi	r30, 0x80	; 128
    419a:	f0 e0       	ldi	r31, 0x00	; 0
    419c:	80 81       	ld	r24, Z
    419e:	81 60       	ori	r24, 0x01	; 1
    41a0:	80 83       	st	Z, r24
    41a2:	e1 eb       	ldi	r30, 0xB1	; 177
    41a4:	f0 e0       	ldi	r31, 0x00	; 0
    41a6:	80 81       	ld	r24, Z
    41a8:	84 60       	ori	r24, 0x04	; 4
    41aa:	80 83       	st	Z, r24
    41ac:	e0 eb       	ldi	r30, 0xB0	; 176
    41ae:	f0 e0       	ldi	r31, 0x00	; 0
    41b0:	80 81       	ld	r24, Z
    41b2:	81 60       	ori	r24, 0x01	; 1
    41b4:	80 83       	st	Z, r24
    41b6:	ea e7       	ldi	r30, 0x7A	; 122
    41b8:	f0 e0       	ldi	r31, 0x00	; 0
    41ba:	80 81       	ld	r24, Z
    41bc:	84 60       	ori	r24, 0x04	; 4
    41be:	80 83       	st	Z, r24
    41c0:	80 81       	ld	r24, Z
    41c2:	82 60       	ori	r24, 0x02	; 2
    41c4:	80 83       	st	Z, r24
    41c6:	80 81       	ld	r24, Z
    41c8:	81 60       	ori	r24, 0x01	; 1
    41ca:	80 83       	st	Z, r24
    41cc:	80 81       	ld	r24, Z
    41ce:	80 68       	ori	r24, 0x80	; 128
    41d0:	80 83       	st	Z, r24
    41d2:	10 92 c1 00 	sts	0x00C1, r1	; 0x8000c1 <__TEXT_REGION_LENGTH__+0x7e00c1>
    41d6:	10 92 b9 00 	sts	0x00B9, r1	; 0x8000b9 <__TEXT_REGION_LENGTH__+0x7e00b9>
    41da:	8c e0       	ldi	r24, 0x0C	; 12
    41dc:	80 93 b8 00 	sts	0x00B8, r24	; 0x8000b8 <__TEXT_REGION_LENGTH__+0x7e00b8>
    41e0:	84 e0       	ldi	r24, 0x04	; 4
    41e2:	80 93 bc 00 	sts	0x00BC, r24	; 0x8000bc <__TEXT_REGION_LENGTH__+0x7e00bc>
    41e6:	08 95       	ret

000041e8 <__udivmodsi4>:
    41e8:	a1 e2       	ldi	r26, 0x21	; 33
    41ea:	1a 2e       	mov	r1, r26
    41ec:	aa 1b       	sub	r26, r26
    41ee:	bb 1b       	sub	r27, r27
    41f0:	fd 01       	movw	r30, r26
    41f2:	0d c0       	rjmp	.+26     	; 0x420e <__udivmodsi4_ep>

000041f4 <__udivmodsi4_loop>:
    41f4:	aa 1f       	adc	r26, r26
    41f6:	bb 1f       	adc	r27, r27
    41f8:	ee 1f       	adc	r30, r30
    41fa:	ff 1f       	adc	r31, r31
    41fc:	a2 17       	cp	r26, r18
    41fe:	b3 07       	cpc	r27, r19
    4200:	e4 07       	cpc	r30, r20
    4202:	f5 07       	cpc	r31, r21
    4204:	20 f0       	brcs	.+8      	; 0x420e <__udivmodsi4_ep>
    4206:	a2 1b       	sub	r26, r18
    4208:	b3 0b       	sbc	r27, r19
    420a:	e4 0b       	sbc	r30, r20
    420c:	f5 0b       	sbc	r31, r21

0000420e <__udivmodsi4_ep>:
    420e:	66 1f       	adc	r22, r22
    4210:	77 1f       	adc	r23, r23
    4212:	88 1f       	adc	r24, r24
    4214:	99 1f       	adc	r25, r25
    4216:	1a 94       	dec	r1
    4218:	69 f7       	brne	.-38     	; 0x41f4 <__udivmodsi4_loop>
    421a:	60 95       	com	r22
    421c:	70 95       	com	r23
    421e:	80 95       	com	r24
    4220:	90 95       	com	r25
    4222:	9b 01       	movw	r18, r22
    4224:	ac 01       	movw	r20, r24
    4226:	bd 01       	movw	r22, r26
    4228:	cf 01       	movw	r24, r30
    422a:	08 95       	ret

0000422c <__divmodsi4>:
    422c:	05 2e       	mov	r0, r21
    422e:	97 fb       	bst	r25, 7
    4230:	1e f4       	brtc	.+6      	; 0x4238 <__divmodsi4+0xc>
    4232:	00 94       	com	r0
    4234:	0e 94 2d 21 	call	0x425a	; 0x425a <__negsi2>
    4238:	57 fd       	sbrc	r21, 7
    423a:	07 d0       	rcall	.+14     	; 0x424a <__divmodsi4_neg2>
    423c:	0e 94 f4 20 	call	0x41e8	; 0x41e8 <__udivmodsi4>
    4240:	07 fc       	sbrc	r0, 7
    4242:	03 d0       	rcall	.+6      	; 0x424a <__divmodsi4_neg2>
    4244:	4e f4       	brtc	.+18     	; 0x4258 <__divmodsi4_exit>
    4246:	0c 94 2d 21 	jmp	0x425a	; 0x425a <__negsi2>

0000424a <__divmodsi4_neg2>:
    424a:	50 95       	com	r21
    424c:	40 95       	com	r20
    424e:	30 95       	com	r19
    4250:	21 95       	neg	r18
    4252:	3f 4f       	sbci	r19, 0xFF	; 255
    4254:	4f 4f       	sbci	r20, 0xFF	; 255
    4256:	5f 4f       	sbci	r21, 0xFF	; 255

00004258 <__divmodsi4_exit>:
    4258:	08 95       	ret

0000425a <__negsi2>:
    425a:	90 95       	com	r25
    425c:	80 95       	com	r24
    425e:	70 95       	com	r23
    4260:	61 95       	neg	r22
    4262:	7f 4f       	sbci	r23, 0xFF	; 255
    4264:	8f 4f       	sbci	r24, 0xFF	; 255
    4266:	9f 4f       	sbci	r25, 0xFF	; 255
    4268:	08 95       	ret

0000426a <__umulhisi3>:
    426a:	a2 9f       	mul	r26, r18
    426c:	b0 01       	movw	r22, r0
    426e:	b3 9f       	mul	r27, r19
    4270:	c0 01       	movw	r24, r0
    4272:	a3 9f       	mul	r26, r19
    4274:	70 0d       	add	r23, r0
    4276:	81 1d       	adc	r24, r1
    4278:	11 24       	eor	r1, r1
    427a:	91 1d       	adc	r25, r1
    427c:	b2 9f       	mul	r27, r18
    427e:	70 0d       	add	r23, r0
    4280:	81 1d       	adc	r24, r1
    4282:	11 24       	eor	r1, r1
    4284:	91 1d       	adc	r25, r1
    4286:	08 95       	ret

00004288 <__muluhisi3>:
    4288:	0e 94 35 21 	call	0x426a	; 0x426a <__umulhisi3>
    428c:	a5 9f       	mul	r26, r21
    428e:	90 0d       	add	r25, r0
    4290:	b4 9f       	mul	r27, r20
    4292:	90 0d       	add	r25, r0
    4294:	a4 9f       	mul	r26, r20
    4296:	80 0d       	add	r24, r0
    4298:	91 1d       	adc	r25, r1
    429a:	11 24       	eor	r1, r1
    429c:	08 95       	ret

0000429e <sprintf>:
    429e:	ae e0       	ldi	r26, 0x0E	; 14
    42a0:	b0 e0       	ldi	r27, 0x00	; 0
    42a2:	e5 e5       	ldi	r30, 0x55	; 85
    42a4:	f1 e2       	ldi	r31, 0x21	; 33
    42a6:	0c 94 fc 23 	jmp	0x47f8	; 0x47f8 <__prologue_saves__+0x1c>
    42aa:	0d 89       	ldd	r16, Y+21	; 0x15
    42ac:	1e 89       	ldd	r17, Y+22	; 0x16
    42ae:	86 e0       	ldi	r24, 0x06	; 6
    42b0:	8c 83       	std	Y+4, r24	; 0x04
    42b2:	1a 83       	std	Y+2, r17	; 0x02
    42b4:	09 83       	std	Y+1, r16	; 0x01
    42b6:	8f ef       	ldi	r24, 0xFF	; 255
    42b8:	9f e7       	ldi	r25, 0x7F	; 127
    42ba:	9e 83       	std	Y+6, r25	; 0x06
    42bc:	8d 83       	std	Y+5, r24	; 0x05
    42be:	ae 01       	movw	r20, r28
    42c0:	47 5e       	subi	r20, 0xE7	; 231
    42c2:	5f 4f       	sbci	r21, 0xFF	; 255
    42c4:	6f 89       	ldd	r22, Y+23	; 0x17
    42c6:	78 8d       	ldd	r23, Y+24	; 0x18
    42c8:	ce 01       	movw	r24, r28
    42ca:	01 96       	adiw	r24, 0x01	; 1
    42cc:	0e 94 72 21 	call	0x42e4	; 0x42e4 <vfprintf>
    42d0:	2f 81       	ldd	r18, Y+7	; 0x07
    42d2:	38 85       	ldd	r19, Y+8	; 0x08
    42d4:	02 0f       	add	r16, r18
    42d6:	13 1f       	adc	r17, r19
    42d8:	f8 01       	movw	r30, r16
    42da:	10 82       	st	Z, r1
    42dc:	2e 96       	adiw	r28, 0x0e	; 14
    42de:	e4 e0       	ldi	r30, 0x04	; 4
    42e0:	0c 94 18 24 	jmp	0x4830	; 0x4830 <__epilogue_restores__+0x1c>

000042e4 <vfprintf>:
    42e4:	af e0       	ldi	r26, 0x0F	; 15
    42e6:	b0 e0       	ldi	r27, 0x00	; 0
    42e8:	e8 e7       	ldi	r30, 0x78	; 120
    42ea:	f1 e2       	ldi	r31, 0x21	; 33
    42ec:	0c 94 ee 23 	jmp	0x47dc	; 0x47dc <__prologue_saves__>
    42f0:	7c 01       	movw	r14, r24
    42f2:	3b 01       	movw	r6, r22
    42f4:	8a 01       	movw	r16, r20
    42f6:	dc 01       	movw	r26, r24
    42f8:	17 96       	adiw	r26, 0x07	; 7
    42fa:	1c 92       	st	X, r1
    42fc:	1e 92       	st	-X, r1
    42fe:	16 97       	sbiw	r26, 0x06	; 6
    4300:	13 96       	adiw	r26, 0x03	; 3
    4302:	8c 91       	ld	r24, X
    4304:	81 ff       	sbrs	r24, 1
    4306:	c3 c1       	rjmp	.+902    	; 0x468e <vfprintf+0x3aa>
    4308:	9a e0       	ldi	r25, 0x0A	; 10
    430a:	29 2e       	mov	r2, r25
    430c:	fe 01       	movw	r30, r28
    430e:	31 96       	adiw	r30, 0x01	; 1
    4310:	4f 01       	movw	r8, r30
    4312:	d7 01       	movw	r26, r14
    4314:	13 96       	adiw	r26, 0x03	; 3
    4316:	9c 91       	ld	r25, X
    4318:	f3 01       	movw	r30, r6
    431a:	93 fd       	sbrc	r25, 3
    431c:	85 91       	lpm	r24, Z+
    431e:	93 ff       	sbrs	r25, 3
    4320:	81 91       	ld	r24, Z+
    4322:	3f 01       	movw	r6, r30
    4324:	88 23       	and	r24, r24
    4326:	09 f4       	brne	.+2      	; 0x432a <vfprintf+0x46>
    4328:	48 c1       	rjmp	.+656    	; 0x45ba <vfprintf+0x2d6>
    432a:	85 32       	cpi	r24, 0x25	; 37
    432c:	39 f4       	brne	.+14     	; 0x433c <vfprintf+0x58>
    432e:	93 fd       	sbrc	r25, 3
    4330:	85 91       	lpm	r24, Z+
    4332:	93 ff       	sbrs	r25, 3
    4334:	81 91       	ld	r24, Z+
    4336:	3f 01       	movw	r6, r30
    4338:	85 32       	cpi	r24, 0x25	; 37
    433a:	29 f4       	brne	.+10     	; 0x4346 <vfprintf+0x62>
    433c:	b7 01       	movw	r22, r14
    433e:	90 e0       	ldi	r25, 0x00	; 0
    4340:	0e 94 60 23 	call	0x46c0	; 0x46c0 <fputc>
    4344:	e6 cf       	rjmp	.-52     	; 0x4312 <vfprintf+0x2e>
    4346:	b1 2c       	mov	r11, r1
    4348:	41 2c       	mov	r4, r1
    434a:	51 2c       	mov	r5, r1
    434c:	bf e1       	ldi	r27, 0x1F	; 31
    434e:	b5 15       	cp	r27, r5
    4350:	38 f0       	brcs	.+14     	; 0x4360 <vfprintf+0x7c>
    4352:	8b 32       	cpi	r24, 0x2B	; 43
    4354:	09 f1       	breq	.+66     	; 0x4398 <vfprintf+0xb4>
    4356:	88 f4       	brcc	.+34     	; 0x437a <vfprintf+0x96>
    4358:	80 32       	cpi	r24, 0x20	; 32
    435a:	01 f1       	breq	.+64     	; 0x439c <vfprintf+0xb8>
    435c:	83 32       	cpi	r24, 0x23	; 35
    435e:	21 f1       	breq	.+72     	; 0x43a8 <vfprintf+0xc4>
    4360:	57 fc       	sbrc	r5, 7
    4362:	3a c0       	rjmp	.+116    	; 0x43d8 <vfprintf+0xf4>
    4364:	20 ed       	ldi	r18, 0xD0	; 208
    4366:	28 0f       	add	r18, r24
    4368:	2a 30       	cpi	r18, 0x0A	; 10
    436a:	40 f5       	brcc	.+80     	; 0x43bc <vfprintf+0xd8>
    436c:	56 fe       	sbrs	r5, 6
    436e:	1f c0       	rjmp	.+62     	; 0x43ae <vfprintf+0xca>
    4370:	b2 9c       	mul	r11, r2
    4372:	20 0d       	add	r18, r0
    4374:	11 24       	eor	r1, r1
    4376:	b2 2e       	mov	r11, r18
    4378:	06 c0       	rjmp	.+12     	; 0x4386 <vfprintf+0xa2>
    437a:	8d 32       	cpi	r24, 0x2D	; 45
    437c:	91 f0       	breq	.+36     	; 0x43a2 <vfprintf+0xbe>
    437e:	80 33       	cpi	r24, 0x30	; 48
    4380:	79 f7       	brne	.-34     	; 0x4360 <vfprintf+0x7c>
    4382:	68 94       	set
    4384:	50 f8       	bld	r5, 0
    4386:	f3 01       	movw	r30, r6
    4388:	93 fd       	sbrc	r25, 3
    438a:	85 91       	lpm	r24, Z+
    438c:	93 ff       	sbrs	r25, 3
    438e:	81 91       	ld	r24, Z+
    4390:	3f 01       	movw	r6, r30
    4392:	81 11       	cpse	r24, r1
    4394:	db cf       	rjmp	.-74     	; 0x434c <vfprintf+0x68>
    4396:	20 c0       	rjmp	.+64     	; 0x43d8 <vfprintf+0xf4>
    4398:	68 94       	set
    439a:	51 f8       	bld	r5, 1
    439c:	68 94       	set
    439e:	52 f8       	bld	r5, 2
    43a0:	f2 cf       	rjmp	.-28     	; 0x4386 <vfprintf+0xa2>
    43a2:	68 94       	set
    43a4:	53 f8       	bld	r5, 3
    43a6:	ef cf       	rjmp	.-34     	; 0x4386 <vfprintf+0xa2>
    43a8:	68 94       	set
    43aa:	54 f8       	bld	r5, 4
    43ac:	ec cf       	rjmp	.-40     	; 0x4386 <vfprintf+0xa2>
    43ae:	42 9c       	mul	r4, r2
    43b0:	20 0d       	add	r18, r0
    43b2:	11 24       	eor	r1, r1
    43b4:	42 2e       	mov	r4, r18
    43b6:	68 94       	set
    43b8:	55 f8       	bld	r5, 5
    43ba:	e5 cf       	rjmp	.-54     	; 0x4386 <vfprintf+0xa2>
    43bc:	8e 32       	cpi	r24, 0x2E	; 46
    43be:	29 f4       	brne	.+10     	; 0x43ca <vfprintf+0xe6>
    43c0:	56 fc       	sbrc	r5, 6
    43c2:	fb c0       	rjmp	.+502    	; 0x45ba <vfprintf+0x2d6>
    43c4:	68 94       	set
    43c6:	56 f8       	bld	r5, 6
    43c8:	de cf       	rjmp	.-68     	; 0x4386 <vfprintf+0xa2>
    43ca:	8c 36       	cpi	r24, 0x6C	; 108
    43cc:	19 f4       	brne	.+6      	; 0x43d4 <vfprintf+0xf0>
    43ce:	68 94       	set
    43d0:	57 f8       	bld	r5, 7
    43d2:	d9 cf       	rjmp	.-78     	; 0x4386 <vfprintf+0xa2>
    43d4:	88 36       	cpi	r24, 0x68	; 104
    43d6:	b9 f2       	breq	.-82     	; 0x4386 <vfprintf+0xa2>
    43d8:	98 2f       	mov	r25, r24
    43da:	9f 7d       	andi	r25, 0xDF	; 223
    43dc:	95 54       	subi	r25, 0x45	; 69
    43de:	93 30       	cpi	r25, 0x03	; 3
    43e0:	c0 f0       	brcs	.+48     	; 0x4412 <vfprintf+0x12e>
    43e2:	83 36       	cpi	r24, 0x63	; 99
    43e4:	a1 f1       	breq	.+104    	; 0x444e <vfprintf+0x16a>
    43e6:	83 37       	cpi	r24, 0x73	; 115
    43e8:	c1 f1       	breq	.+112    	; 0x445a <vfprintf+0x176>
    43ea:	83 35       	cpi	r24, 0x53	; 83
    43ec:	09 f0       	breq	.+2      	; 0x43f0 <vfprintf+0x10c>
    43ee:	5b c0       	rjmp	.+182    	; 0x44a6 <vfprintf+0x1c2>
    43f0:	d8 01       	movw	r26, r16
    43f2:	cd 90       	ld	r12, X+
    43f4:	dd 90       	ld	r13, X+
    43f6:	8d 01       	movw	r16, r26
    43f8:	6b 2d       	mov	r22, r11
    43fa:	70 e0       	ldi	r23, 0x00	; 0
    43fc:	56 fc       	sbrc	r5, 6
    43fe:	02 c0       	rjmp	.+4      	; 0x4404 <vfprintf+0x120>
    4400:	6f ef       	ldi	r22, 0xFF	; 255
    4402:	7f ef       	ldi	r23, 0xFF	; 255
    4404:	c6 01       	movw	r24, r12
    4406:	0e 94 4a 23 	call	0x4694	; 0x4694 <strnlen_P>
    440a:	5c 01       	movw	r10, r24
    440c:	68 94       	set
    440e:	57 f8       	bld	r5, 7
    4410:	0a c0       	rjmp	.+20     	; 0x4426 <vfprintf+0x142>
    4412:	0c 5f       	subi	r16, 0xFC	; 252
    4414:	1f 4f       	sbci	r17, 0xFF	; 255
    4416:	ef e3       	ldi	r30, 0x3F	; 63
    4418:	e9 83       	std	Y+1, r30	; 0x01
    441a:	aa 24       	eor	r10, r10
    441c:	a3 94       	inc	r10
    441e:	b1 2c       	mov	r11, r1
    4420:	64 01       	movw	r12, r8
    4422:	e8 94       	clt
    4424:	57 f8       	bld	r5, 7
    4426:	53 fc       	sbrc	r5, 3
    4428:	04 c0       	rjmp	.+8      	; 0x4432 <vfprintf+0x14e>
    442a:	4a 14       	cp	r4, r10
    442c:	1b 04       	cpc	r1, r11
    442e:	09 f0       	breq	.+2      	; 0x4432 <vfprintf+0x14e>
    4430:	18 f5       	brcc	.+70     	; 0x4478 <vfprintf+0x194>
    4432:	34 2c       	mov	r3, r4
    4434:	a1 14       	cp	r10, r1
    4436:	b1 04       	cpc	r11, r1
    4438:	31 f5       	brne	.+76     	; 0x4486 <vfprintf+0x1a2>
    443a:	33 20       	and	r3, r3
    443c:	09 f4       	brne	.+2      	; 0x4440 <vfprintf+0x15c>
    443e:	69 cf       	rjmp	.-302    	; 0x4312 <vfprintf+0x2e>
    4440:	b7 01       	movw	r22, r14
    4442:	80 e2       	ldi	r24, 0x20	; 32
    4444:	90 e0       	ldi	r25, 0x00	; 0
    4446:	0e 94 60 23 	call	0x46c0	; 0x46c0 <fputc>
    444a:	3a 94       	dec	r3
    444c:	f6 cf       	rjmp	.-20     	; 0x443a <vfprintf+0x156>
    444e:	d8 01       	movw	r26, r16
    4450:	8c 91       	ld	r24, X
    4452:	89 83       	std	Y+1, r24	; 0x01
    4454:	0e 5f       	subi	r16, 0xFE	; 254
    4456:	1f 4f       	sbci	r17, 0xFF	; 255
    4458:	e0 cf       	rjmp	.-64     	; 0x441a <vfprintf+0x136>
    445a:	f8 01       	movw	r30, r16
    445c:	c1 90       	ld	r12, Z+
    445e:	d1 90       	ld	r13, Z+
    4460:	8f 01       	movw	r16, r30
    4462:	6b 2d       	mov	r22, r11
    4464:	70 e0       	ldi	r23, 0x00	; 0
    4466:	56 fc       	sbrc	r5, 6
    4468:	02 c0       	rjmp	.+4      	; 0x446e <vfprintf+0x18a>
    446a:	6f ef       	ldi	r22, 0xFF	; 255
    446c:	7f ef       	ldi	r23, 0xFF	; 255
    446e:	c6 01       	movw	r24, r12
    4470:	0e 94 55 23 	call	0x46aa	; 0x46aa <strnlen>
    4474:	5c 01       	movw	r10, r24
    4476:	d5 cf       	rjmp	.-86     	; 0x4422 <vfprintf+0x13e>
    4478:	b7 01       	movw	r22, r14
    447a:	80 e2       	ldi	r24, 0x20	; 32
    447c:	90 e0       	ldi	r25, 0x00	; 0
    447e:	0e 94 60 23 	call	0x46c0	; 0x46c0 <fputc>
    4482:	4a 94       	dec	r4
    4484:	d2 cf       	rjmp	.-92     	; 0x442a <vfprintf+0x146>
    4486:	f6 01       	movw	r30, r12
    4488:	57 fc       	sbrc	r5, 7
    448a:	85 91       	lpm	r24, Z+
    448c:	57 fe       	sbrs	r5, 7
    448e:	81 91       	ld	r24, Z+
    4490:	6f 01       	movw	r12, r30
    4492:	b7 01       	movw	r22, r14
    4494:	90 e0       	ldi	r25, 0x00	; 0
    4496:	0e 94 60 23 	call	0x46c0	; 0x46c0 <fputc>
    449a:	31 10       	cpse	r3, r1
    449c:	3a 94       	dec	r3
    449e:	b1 e0       	ldi	r27, 0x01	; 1
    44a0:	ab 1a       	sub	r10, r27
    44a2:	b1 08       	sbc	r11, r1
    44a4:	c7 cf       	rjmp	.-114    	; 0x4434 <vfprintf+0x150>
    44a6:	84 36       	cpi	r24, 0x64	; 100
    44a8:	19 f0       	breq	.+6      	; 0x44b0 <vfprintf+0x1cc>
    44aa:	89 36       	cpi	r24, 0x69	; 105
    44ac:	09 f0       	breq	.+2      	; 0x44b0 <vfprintf+0x1cc>
    44ae:	74 c0       	rjmp	.+232    	; 0x4598 <vfprintf+0x2b4>
    44b0:	f8 01       	movw	r30, r16
    44b2:	57 fe       	sbrs	r5, 7
    44b4:	6a c0       	rjmp	.+212    	; 0x458a <vfprintf+0x2a6>
    44b6:	61 91       	ld	r22, Z+
    44b8:	71 91       	ld	r23, Z+
    44ba:	81 91       	ld	r24, Z+
    44bc:	91 91       	ld	r25, Z+
    44be:	8f 01       	movw	r16, r30
    44c0:	e5 2d       	mov	r30, r5
    44c2:	ef 76       	andi	r30, 0x6F	; 111
    44c4:	de 2e       	mov	r13, r30
    44c6:	97 ff       	sbrs	r25, 7
    44c8:	09 c0       	rjmp	.+18     	; 0x44dc <vfprintf+0x1f8>
    44ca:	90 95       	com	r25
    44cc:	80 95       	com	r24
    44ce:	70 95       	com	r23
    44d0:	61 95       	neg	r22
    44d2:	7f 4f       	sbci	r23, 0xFF	; 255
    44d4:	8f 4f       	sbci	r24, 0xFF	; 255
    44d6:	9f 4f       	sbci	r25, 0xFF	; 255
    44d8:	68 94       	set
    44da:	d7 f8       	bld	r13, 7
    44dc:	2a e0       	ldi	r18, 0x0A	; 10
    44de:	30 e0       	ldi	r19, 0x00	; 0
    44e0:	a4 01       	movw	r20, r8
    44e2:	0e 94 90 23 	call	0x4720	; 0x4720 <__ultoa_invert>
    44e6:	c8 2e       	mov	r12, r24
    44e8:	c8 18       	sub	r12, r8
    44ea:	ac 2c       	mov	r10, r12
    44ec:	5d 2c       	mov	r5, r13
    44ee:	d6 fe       	sbrs	r13, 6
    44f0:	0c c0       	rjmp	.+24     	; 0x450a <vfprintf+0x226>
    44f2:	e8 94       	clt
    44f4:	50 f8       	bld	r5, 0
    44f6:	cb 14       	cp	r12, r11
    44f8:	40 f4       	brcc	.+16     	; 0x450a <vfprintf+0x226>
    44fa:	d4 fe       	sbrs	r13, 4
    44fc:	05 c0       	rjmp	.+10     	; 0x4508 <vfprintf+0x224>
    44fe:	d2 fc       	sbrc	r13, 2
    4500:	03 c0       	rjmp	.+6      	; 0x4508 <vfprintf+0x224>
    4502:	5d 2d       	mov	r21, r13
    4504:	5e 7e       	andi	r21, 0xEE	; 238
    4506:	55 2e       	mov	r5, r21
    4508:	ab 2c       	mov	r10, r11
    450a:	54 fe       	sbrs	r5, 4
    450c:	98 c0       	rjmp	.+304    	; 0x463e <vfprintf+0x35a>
    450e:	fe 01       	movw	r30, r28
    4510:	ec 0d       	add	r30, r12
    4512:	f1 1d       	adc	r31, r1
    4514:	80 81       	ld	r24, Z
    4516:	80 33       	cpi	r24, 0x30	; 48
    4518:	09 f0       	breq	.+2      	; 0x451c <vfprintf+0x238>
    451a:	8a c0       	rjmp	.+276    	; 0x4630 <vfprintf+0x34c>
    451c:	65 2d       	mov	r22, r5
    451e:	69 7e       	andi	r22, 0xE9	; 233
    4520:	56 2e       	mov	r5, r22
    4522:	75 2d       	mov	r23, r5
    4524:	78 70       	andi	r23, 0x08	; 8
    4526:	37 2e       	mov	r3, r23
    4528:	53 fc       	sbrc	r5, 3
    452a:	98 c0       	rjmp	.+304    	; 0x465c <vfprintf+0x378>
    452c:	50 fe       	sbrs	r5, 0
    452e:	92 c0       	rjmp	.+292    	; 0x4654 <vfprintf+0x370>
    4530:	bc 2c       	mov	r11, r12
    4532:	a4 14       	cp	r10, r4
    4534:	18 f4       	brcc	.+6      	; 0x453c <vfprintf+0x258>
    4536:	4c 0c       	add	r4, r12
    4538:	b4 2c       	mov	r11, r4
    453a:	ba 18       	sub	r11, r10
    453c:	54 fe       	sbrs	r5, 4
    453e:	94 c0       	rjmp	.+296    	; 0x4668 <vfprintf+0x384>
    4540:	b7 01       	movw	r22, r14
    4542:	80 e3       	ldi	r24, 0x30	; 48
    4544:	90 e0       	ldi	r25, 0x00	; 0
    4546:	0e 94 60 23 	call	0x46c0	; 0x46c0 <fputc>
    454a:	52 fe       	sbrs	r5, 2
    454c:	09 c0       	rjmp	.+18     	; 0x4560 <vfprintf+0x27c>
    454e:	88 e7       	ldi	r24, 0x78	; 120
    4550:	90 e0       	ldi	r25, 0x00	; 0
    4552:	51 fe       	sbrs	r5, 1
    4554:	02 c0       	rjmp	.+4      	; 0x455a <vfprintf+0x276>
    4556:	88 e5       	ldi	r24, 0x58	; 88
    4558:	90 e0       	ldi	r25, 0x00	; 0
    455a:	b7 01       	movw	r22, r14
    455c:	0e 94 60 23 	call	0x46c0	; 0x46c0 <fputc>
    4560:	cb 14       	cp	r12, r11
    4562:	08 f4       	brcc	.+2      	; 0x4566 <vfprintf+0x282>
    4564:	8d c0       	rjmp	.+282    	; 0x4680 <vfprintf+0x39c>
    4566:	ca 94       	dec	r12
    4568:	d1 2c       	mov	r13, r1
    456a:	8f ef       	ldi	r24, 0xFF	; 255
    456c:	c8 1a       	sub	r12, r24
    456e:	d8 0a       	sbc	r13, r24
    4570:	c8 0c       	add	r12, r8
    4572:	d9 1c       	adc	r13, r9
    4574:	d6 01       	movw	r26, r12
    4576:	8e 91       	ld	r24, -X
    4578:	6d 01       	movw	r12, r26
    457a:	b7 01       	movw	r22, r14
    457c:	90 e0       	ldi	r25, 0x00	; 0
    457e:	0e 94 60 23 	call	0x46c0	; 0x46c0 <fputc>
    4582:	8c 14       	cp	r8, r12
    4584:	9d 04       	cpc	r9, r13
    4586:	b1 f7       	brne	.-20     	; 0x4574 <vfprintf+0x290>
    4588:	58 cf       	rjmp	.-336    	; 0x443a <vfprintf+0x156>
    458a:	61 91       	ld	r22, Z+
    458c:	71 91       	ld	r23, Z+
    458e:	07 2e       	mov	r0, r23
    4590:	00 0c       	add	r0, r0
    4592:	88 0b       	sbc	r24, r24
    4594:	99 0b       	sbc	r25, r25
    4596:	93 cf       	rjmp	.-218    	; 0x44be <vfprintf+0x1da>
    4598:	d5 2c       	mov	r13, r5
    459a:	e8 94       	clt
    459c:	d4 f8       	bld	r13, 4
    459e:	2a e0       	ldi	r18, 0x0A	; 10
    45a0:	30 e0       	ldi	r19, 0x00	; 0
    45a2:	85 37       	cpi	r24, 0x75	; 117
    45a4:	39 f1       	breq	.+78     	; 0x45f4 <vfprintf+0x310>
    45a6:	f5 2d       	mov	r31, r5
    45a8:	f9 7f       	andi	r31, 0xF9	; 249
    45aa:	df 2e       	mov	r13, r31
    45ac:	80 37       	cpi	r24, 0x70	; 112
    45ae:	a9 f0       	breq	.+42     	; 0x45da <vfprintf+0x2f6>
    45b0:	58 f4       	brcc	.+22     	; 0x45c8 <vfprintf+0x2e4>
    45b2:	88 35       	cpi	r24, 0x58	; 88
    45b4:	a9 f0       	breq	.+42     	; 0x45e0 <vfprintf+0x2fc>
    45b6:	8f 36       	cpi	r24, 0x6F	; 111
    45b8:	d9 f0       	breq	.+54     	; 0x45f0 <vfprintf+0x30c>
    45ba:	f7 01       	movw	r30, r14
    45bc:	86 81       	ldd	r24, Z+6	; 0x06
    45be:	97 81       	ldd	r25, Z+7	; 0x07
    45c0:	2f 96       	adiw	r28, 0x0f	; 15
    45c2:	e2 e1       	ldi	r30, 0x12	; 18
    45c4:	0c 94 0a 24 	jmp	0x4814	; 0x4814 <__epilogue_restores__>
    45c8:	88 37       	cpi	r24, 0x78	; 120
    45ca:	b9 f7       	brne	.-18     	; 0x45ba <vfprintf+0x2d6>
    45cc:	d4 fe       	sbrs	r13, 4
    45ce:	02 c0       	rjmp	.+4      	; 0x45d4 <vfprintf+0x2f0>
    45d0:	68 94       	set
    45d2:	d2 f8       	bld	r13, 2
    45d4:	20 e1       	ldi	r18, 0x10	; 16
    45d6:	30 e0       	ldi	r19, 0x00	; 0
    45d8:	0d c0       	rjmp	.+26     	; 0x45f4 <vfprintf+0x310>
    45da:	68 94       	set
    45dc:	d4 f8       	bld	r13, 4
    45de:	f6 cf       	rjmp	.-20     	; 0x45cc <vfprintf+0x2e8>
    45e0:	54 fe       	sbrs	r5, 4
    45e2:	03 c0       	rjmp	.+6      	; 0x45ea <vfprintf+0x306>
    45e4:	2f 2f       	mov	r18, r31
    45e6:	26 60       	ori	r18, 0x06	; 6
    45e8:	d2 2e       	mov	r13, r18
    45ea:	20 e1       	ldi	r18, 0x10	; 16
    45ec:	32 e0       	ldi	r19, 0x02	; 2
    45ee:	02 c0       	rjmp	.+4      	; 0x45f4 <vfprintf+0x310>
    45f0:	28 e0       	ldi	r18, 0x08	; 8
    45f2:	30 e0       	ldi	r19, 0x00	; 0
    45f4:	f8 01       	movw	r30, r16
    45f6:	d7 fe       	sbrs	r13, 7
    45f8:	15 c0       	rjmp	.+42     	; 0x4624 <vfprintf+0x340>
    45fa:	41 91       	ld	r20, Z+
    45fc:	51 91       	ld	r21, Z+
    45fe:	61 91       	ld	r22, Z+
    4600:	71 91       	ld	r23, Z+
    4602:	4c 87       	std	Y+12, r20	; 0x0c
    4604:	5d 87       	std	Y+13, r21	; 0x0d
    4606:	6e 87       	std	Y+14, r22	; 0x0e
    4608:	7f 87       	std	Y+15, r23	; 0x0f
    460a:	8f 01       	movw	r16, r30
    460c:	a4 01       	movw	r20, r8
    460e:	6c 85       	ldd	r22, Y+12	; 0x0c
    4610:	7d 85       	ldd	r23, Y+13	; 0x0d
    4612:	8e 85       	ldd	r24, Y+14	; 0x0e
    4614:	9f 85       	ldd	r25, Y+15	; 0x0f
    4616:	0e 94 90 23 	call	0x4720	; 0x4720 <__ultoa_invert>
    461a:	c8 2e       	mov	r12, r24
    461c:	c8 18       	sub	r12, r8
    461e:	e8 94       	clt
    4620:	d7 f8       	bld	r13, 7
    4622:	63 cf       	rjmp	.-314    	; 0x44ea <vfprintf+0x206>
    4624:	81 91       	ld	r24, Z+
    4626:	91 91       	ld	r25, Z+
    4628:	ac 01       	movw	r20, r24
    462a:	70 e0       	ldi	r23, 0x00	; 0
    462c:	60 e0       	ldi	r22, 0x00	; 0
    462e:	e9 cf       	rjmp	.-46     	; 0x4602 <vfprintf+0x31e>
    4630:	52 fc       	sbrc	r5, 2
    4632:	02 c0       	rjmp	.+4      	; 0x4638 <vfprintf+0x354>
    4634:	a3 94       	inc	r10
    4636:	75 cf       	rjmp	.-278    	; 0x4522 <vfprintf+0x23e>
    4638:	a3 94       	inc	r10
    463a:	a3 94       	inc	r10
    463c:	72 cf       	rjmp	.-284    	; 0x4522 <vfprintf+0x23e>
    463e:	85 2d       	mov	r24, r5
    4640:	86 78       	andi	r24, 0x86	; 134
    4642:	09 f4       	brne	.+2      	; 0x4646 <vfprintf+0x362>
    4644:	6e cf       	rjmp	.-292    	; 0x4522 <vfprintf+0x23e>
    4646:	f6 cf       	rjmp	.-20     	; 0x4634 <vfprintf+0x350>
    4648:	b7 01       	movw	r22, r14
    464a:	80 e2       	ldi	r24, 0x20	; 32
    464c:	90 e0       	ldi	r25, 0x00	; 0
    464e:	0e 94 60 23 	call	0x46c0	; 0x46c0 <fputc>
    4652:	a3 94       	inc	r10
    4654:	a4 14       	cp	r10, r4
    4656:	c0 f3       	brcs	.-16     	; 0x4648 <vfprintf+0x364>
    4658:	31 2c       	mov	r3, r1
    465a:	70 cf       	rjmp	.-288    	; 0x453c <vfprintf+0x258>
    465c:	34 2c       	mov	r3, r4
    465e:	3a 18       	sub	r3, r10
    4660:	a4 14       	cp	r10, r4
    4662:	08 f4       	brcc	.+2      	; 0x4666 <vfprintf+0x382>
    4664:	6b cf       	rjmp	.-298    	; 0x453c <vfprintf+0x258>
    4666:	f8 cf       	rjmp	.-16     	; 0x4658 <vfprintf+0x374>
    4668:	85 2d       	mov	r24, r5
    466a:	86 78       	andi	r24, 0x86	; 134
    466c:	09 f4       	brne	.+2      	; 0x4670 <vfprintf+0x38c>
    466e:	78 cf       	rjmp	.-272    	; 0x4560 <vfprintf+0x27c>
    4670:	8b e2       	ldi	r24, 0x2B	; 43
    4672:	51 fe       	sbrs	r5, 1
    4674:	80 e2       	ldi	r24, 0x20	; 32
    4676:	57 fc       	sbrc	r5, 7
    4678:	8d e2       	ldi	r24, 0x2D	; 45
    467a:	b7 01       	movw	r22, r14
    467c:	90 e0       	ldi	r25, 0x00	; 0
    467e:	6e cf       	rjmp	.-292    	; 0x455c <vfprintf+0x278>
    4680:	b7 01       	movw	r22, r14
    4682:	80 e3       	ldi	r24, 0x30	; 48
    4684:	90 e0       	ldi	r25, 0x00	; 0
    4686:	0e 94 60 23 	call	0x46c0	; 0x46c0 <fputc>
    468a:	ba 94       	dec	r11
    468c:	69 cf       	rjmp	.-302    	; 0x4560 <vfprintf+0x27c>
    468e:	8f ef       	ldi	r24, 0xFF	; 255
    4690:	9f ef       	ldi	r25, 0xFF	; 255
    4692:	96 cf       	rjmp	.-212    	; 0x45c0 <vfprintf+0x2dc>

00004694 <strnlen_P>:
    4694:	fc 01       	movw	r30, r24
    4696:	05 90       	lpm	r0, Z+
    4698:	61 50       	subi	r22, 0x01	; 1
    469a:	70 40       	sbci	r23, 0x00	; 0
    469c:	01 10       	cpse	r0, r1
    469e:	d8 f7       	brcc	.-10     	; 0x4696 <strnlen_P+0x2>
    46a0:	80 95       	com	r24
    46a2:	90 95       	com	r25
    46a4:	8e 0f       	add	r24, r30
    46a6:	9f 1f       	adc	r25, r31
    46a8:	08 95       	ret

000046aa <strnlen>:
    46aa:	fc 01       	movw	r30, r24
    46ac:	61 50       	subi	r22, 0x01	; 1
    46ae:	70 40       	sbci	r23, 0x00	; 0
    46b0:	01 90       	ld	r0, Z+
    46b2:	01 10       	cpse	r0, r1
    46b4:	d8 f7       	brcc	.-10     	; 0x46ac <strnlen+0x2>
    46b6:	80 95       	com	r24
    46b8:	90 95       	com	r25
    46ba:	8e 0f       	add	r24, r30
    46bc:	9f 1f       	adc	r25, r31
    46be:	08 95       	ret

000046c0 <fputc>:
    46c0:	0f 93       	push	r16
    46c2:	1f 93       	push	r17
    46c4:	cf 93       	push	r28
    46c6:	df 93       	push	r29
    46c8:	18 2f       	mov	r17, r24
    46ca:	09 2f       	mov	r16, r25
    46cc:	eb 01       	movw	r28, r22
    46ce:	8b 81       	ldd	r24, Y+3	; 0x03
    46d0:	81 fd       	sbrc	r24, 1
    46d2:	09 c0       	rjmp	.+18     	; 0x46e6 <fputc+0x26>
    46d4:	1f ef       	ldi	r17, 0xFF	; 255
    46d6:	0f ef       	ldi	r16, 0xFF	; 255
    46d8:	81 2f       	mov	r24, r17
    46da:	90 2f       	mov	r25, r16
    46dc:	df 91       	pop	r29
    46de:	cf 91       	pop	r28
    46e0:	1f 91       	pop	r17
    46e2:	0f 91       	pop	r16
    46e4:	08 95       	ret
    46e6:	82 ff       	sbrs	r24, 2
    46e8:	14 c0       	rjmp	.+40     	; 0x4712 <fputc+0x52>
    46ea:	2e 81       	ldd	r18, Y+6	; 0x06
    46ec:	3f 81       	ldd	r19, Y+7	; 0x07
    46ee:	8c 81       	ldd	r24, Y+4	; 0x04
    46f0:	9d 81       	ldd	r25, Y+5	; 0x05
    46f2:	28 17       	cp	r18, r24
    46f4:	39 07       	cpc	r19, r25
    46f6:	3c f4       	brge	.+14     	; 0x4706 <fputc+0x46>
    46f8:	e8 81       	ld	r30, Y
    46fa:	f9 81       	ldd	r31, Y+1	; 0x01
    46fc:	cf 01       	movw	r24, r30
    46fe:	01 96       	adiw	r24, 0x01	; 1
    4700:	99 83       	std	Y+1, r25	; 0x01
    4702:	88 83       	st	Y, r24
    4704:	10 83       	st	Z, r17
    4706:	8e 81       	ldd	r24, Y+6	; 0x06
    4708:	9f 81       	ldd	r25, Y+7	; 0x07
    470a:	01 96       	adiw	r24, 0x01	; 1
    470c:	9f 83       	std	Y+7, r25	; 0x07
    470e:	8e 83       	std	Y+6, r24	; 0x06
    4710:	e3 cf       	rjmp	.-58     	; 0x46d8 <fputc+0x18>
    4712:	e8 85       	ldd	r30, Y+8	; 0x08
    4714:	f9 85       	ldd	r31, Y+9	; 0x09
    4716:	81 2f       	mov	r24, r17
    4718:	09 95       	icall
    471a:	89 2b       	or	r24, r25
    471c:	a1 f3       	breq	.-24     	; 0x4706 <fputc+0x46>
    471e:	da cf       	rjmp	.-76     	; 0x46d4 <fputc+0x14>

00004720 <__ultoa_invert>:
    4720:	fa 01       	movw	r30, r20
    4722:	aa 27       	eor	r26, r26
    4724:	28 30       	cpi	r18, 0x08	; 8
    4726:	51 f1       	breq	.+84     	; 0x477c <__ultoa_invert+0x5c>
    4728:	20 31       	cpi	r18, 0x10	; 16
    472a:	81 f1       	breq	.+96     	; 0x478c <__ultoa_invert+0x6c>
    472c:	e8 94       	clt
    472e:	6f 93       	push	r22
    4730:	6e 7f       	andi	r22, 0xFE	; 254
    4732:	6e 5f       	subi	r22, 0xFE	; 254
    4734:	7f 4f       	sbci	r23, 0xFF	; 255
    4736:	8f 4f       	sbci	r24, 0xFF	; 255
    4738:	9f 4f       	sbci	r25, 0xFF	; 255
    473a:	af 4f       	sbci	r26, 0xFF	; 255
    473c:	b1 e0       	ldi	r27, 0x01	; 1
    473e:	3e d0       	rcall	.+124    	; 0x47bc <__ultoa_invert+0x9c>
    4740:	b4 e0       	ldi	r27, 0x04	; 4
    4742:	3c d0       	rcall	.+120    	; 0x47bc <__ultoa_invert+0x9c>
    4744:	67 0f       	add	r22, r23
    4746:	78 1f       	adc	r23, r24
    4748:	89 1f       	adc	r24, r25
    474a:	9a 1f       	adc	r25, r26
    474c:	a1 1d       	adc	r26, r1
    474e:	68 0f       	add	r22, r24
    4750:	79 1f       	adc	r23, r25
    4752:	8a 1f       	adc	r24, r26
    4754:	91 1d       	adc	r25, r1
    4756:	a1 1d       	adc	r26, r1
    4758:	6a 0f       	add	r22, r26
    475a:	71 1d       	adc	r23, r1
    475c:	81 1d       	adc	r24, r1
    475e:	91 1d       	adc	r25, r1
    4760:	a1 1d       	adc	r26, r1
    4762:	20 d0       	rcall	.+64     	; 0x47a4 <__ultoa_invert+0x84>
    4764:	09 f4       	brne	.+2      	; 0x4768 <__ultoa_invert+0x48>
    4766:	68 94       	set
    4768:	3f 91       	pop	r19
    476a:	2a e0       	ldi	r18, 0x0A	; 10
    476c:	26 9f       	mul	r18, r22
    476e:	11 24       	eor	r1, r1
    4770:	30 19       	sub	r19, r0
    4772:	30 5d       	subi	r19, 0xD0	; 208
    4774:	31 93       	st	Z+, r19
    4776:	de f6       	brtc	.-74     	; 0x472e <__ultoa_invert+0xe>
    4778:	cf 01       	movw	r24, r30
    477a:	08 95       	ret
    477c:	46 2f       	mov	r20, r22
    477e:	47 70       	andi	r20, 0x07	; 7
    4780:	40 5d       	subi	r20, 0xD0	; 208
    4782:	41 93       	st	Z+, r20
    4784:	b3 e0       	ldi	r27, 0x03	; 3
    4786:	0f d0       	rcall	.+30     	; 0x47a6 <__ultoa_invert+0x86>
    4788:	c9 f7       	brne	.-14     	; 0x477c <__ultoa_invert+0x5c>
    478a:	f6 cf       	rjmp	.-20     	; 0x4778 <__ultoa_invert+0x58>
    478c:	46 2f       	mov	r20, r22
    478e:	4f 70       	andi	r20, 0x0F	; 15
    4790:	40 5d       	subi	r20, 0xD0	; 208
    4792:	4a 33       	cpi	r20, 0x3A	; 58
    4794:	18 f0       	brcs	.+6      	; 0x479c <__ultoa_invert+0x7c>
    4796:	49 5d       	subi	r20, 0xD9	; 217
    4798:	31 fd       	sbrc	r19, 1
    479a:	40 52       	subi	r20, 0x20	; 32
    479c:	41 93       	st	Z+, r20
    479e:	02 d0       	rcall	.+4      	; 0x47a4 <__ultoa_invert+0x84>
    47a0:	a9 f7       	brne	.-22     	; 0x478c <__ultoa_invert+0x6c>
    47a2:	ea cf       	rjmp	.-44     	; 0x4778 <__ultoa_invert+0x58>
    47a4:	b4 e0       	ldi	r27, 0x04	; 4
    47a6:	a6 95       	lsr	r26
    47a8:	97 95       	ror	r25
    47aa:	87 95       	ror	r24
    47ac:	77 95       	ror	r23
    47ae:	67 95       	ror	r22
    47b0:	ba 95       	dec	r27
    47b2:	c9 f7       	brne	.-14     	; 0x47a6 <__ultoa_invert+0x86>
    47b4:	00 97       	sbiw	r24, 0x00	; 0
    47b6:	61 05       	cpc	r22, r1
    47b8:	71 05       	cpc	r23, r1
    47ba:	08 95       	ret
    47bc:	9b 01       	movw	r18, r22
    47be:	ac 01       	movw	r20, r24
    47c0:	0a 2e       	mov	r0, r26
    47c2:	06 94       	lsr	r0
    47c4:	57 95       	ror	r21
    47c6:	47 95       	ror	r20
    47c8:	37 95       	ror	r19
    47ca:	27 95       	ror	r18
    47cc:	ba 95       	dec	r27
    47ce:	c9 f7       	brne	.-14     	; 0x47c2 <__ultoa_invert+0xa2>
    47d0:	62 0f       	add	r22, r18
    47d2:	73 1f       	adc	r23, r19
    47d4:	84 1f       	adc	r24, r20
    47d6:	95 1f       	adc	r25, r21
    47d8:	a0 1d       	adc	r26, r0
    47da:	08 95       	ret

000047dc <__prologue_saves__>:
    47dc:	2f 92       	push	r2
    47de:	3f 92       	push	r3
    47e0:	4f 92       	push	r4
    47e2:	5f 92       	push	r5
    47e4:	6f 92       	push	r6
    47e6:	7f 92       	push	r7
    47e8:	8f 92       	push	r8
    47ea:	9f 92       	push	r9
    47ec:	af 92       	push	r10
    47ee:	bf 92       	push	r11
    47f0:	cf 92       	push	r12
    47f2:	df 92       	push	r13
    47f4:	ef 92       	push	r14
    47f6:	ff 92       	push	r15
    47f8:	0f 93       	push	r16
    47fa:	1f 93       	push	r17
    47fc:	cf 93       	push	r28
    47fe:	df 93       	push	r29
    4800:	cd b7       	in	r28, 0x3d	; 61
    4802:	de b7       	in	r29, 0x3e	; 62
    4804:	ca 1b       	sub	r28, r26
    4806:	db 0b       	sbc	r29, r27
    4808:	0f b6       	in	r0, 0x3f	; 63
    480a:	f8 94       	cli
    480c:	de bf       	out	0x3e, r29	; 62
    480e:	0f be       	out	0x3f, r0	; 63
    4810:	cd bf       	out	0x3d, r28	; 61
    4812:	09 94       	ijmp

00004814 <__epilogue_restores__>:
    4814:	2a 88       	ldd	r2, Y+18	; 0x12
    4816:	39 88       	ldd	r3, Y+17	; 0x11
    4818:	48 88       	ldd	r4, Y+16	; 0x10
    481a:	5f 84       	ldd	r5, Y+15	; 0x0f
    481c:	6e 84       	ldd	r6, Y+14	; 0x0e
    481e:	7d 84       	ldd	r7, Y+13	; 0x0d
    4820:	8c 84       	ldd	r8, Y+12	; 0x0c
    4822:	9b 84       	ldd	r9, Y+11	; 0x0b
    4824:	aa 84       	ldd	r10, Y+10	; 0x0a
    4826:	b9 84       	ldd	r11, Y+9	; 0x09
    4828:	c8 84       	ldd	r12, Y+8	; 0x08
    482a:	df 80       	ldd	r13, Y+7	; 0x07
    482c:	ee 80       	ldd	r14, Y+6	; 0x06
    482e:	fd 80       	ldd	r15, Y+5	; 0x05
    4830:	0c 81       	ldd	r16, Y+4	; 0x04
    4832:	1b 81       	ldd	r17, Y+3	; 0x03
    4834:	aa 81       	ldd	r26, Y+2	; 0x02
    4836:	b9 81       	ldd	r27, Y+1	; 0x01
    4838:	ce 0f       	add	r28, r30
    483a:	d1 1d       	adc	r29, r1
    483c:	0f b6       	in	r0, 0x3f	; 63
    483e:	f8 94       	cli
    4840:	de bf       	out	0x3e, r29	; 62
    4842:	0f be       	out	0x3f, r0	; 63
    4844:	cd bf       	out	0x3d, r28	; 61
    4846:	ed 01       	movw	r28, r26
    4848:	08 95       	ret

0000484a <_exit>:
    484a:	f8 94       	cli

0000484c <__stop_program>:
    484c:	ff cf       	rjmp	.-2      	; 0x484c <__stop_program>
